(lp0
(dp1
S'line'
p2
S'Post-streptococcal reactive arthritis is an entity.'
p3
sS'genes'
p4
(lp5
sS'diseases'
p6
(lp7
(dp8
S'index'
p9
I0
sS'cui'
p10
VC1290140
p11
sS'lengthInChars'
p12
I37
sS'name'
p13
VPost-streptococcal reactive arthritis
p14
sS'lengthInWords'
p15
I3
sasa(dp16
g2
S'Mesothelioma (malignant, clinical disorder) (disorder) is an entity.'
p17
sg4
(lp18
sg6
(lp19
(dp20
g9
I0
sg10
VC0025500
p21
sg12
I12
sg13
VMesothelioma
p22
sg15
I1
sasa(dp23
g2
S'Anodontia of Permanent Dentition is an entity.'
p24
sg4
(lp25
sg6
(lp26
(dp27
g9
I0
sg10
VC1290511
p28
sg12
I32
sg13
VAnodontia of Permanent Dentition
p29
sg15
I4
sasa(dp30
g2
S'Osteomyelitis of mandible is an entity.'
p31
sg4
(lp32
sg6
(lp33
(dp34
g9
I0
sg10
VC1290708
p35
sg12
I25
sg13
VOsteomyelitis of mandible
p36
sg15
I3
sasa(dp37
g2
S'Chronic inflammatory disorder is an entity.'
p38
sg4
(lp39
sg6
(lp40
(dp41
g9
I0
sg10
VC1290886
p42
sg12
I29
sg13
VChronic inflammatory disorder
p43
sg15
I3
sasa(dp44
g2
S'Abdominal bloating is an entity.'
p45
sg4
(lp46
sg6
(lp47
(dp48
g9
I0
sg10
VC1291077
p49
sg12
I18
sg13
VAbdominal bloating
p50
sg15
I2
sasa(dp51
g2
S'Deficiency of phosphoserine phosphatase is an entity.'
p52
sg4
(lp53
(dp54
g9
I14
sS'uniprot'
p55
VP78330
p56
sg12
I25
sg13
Vphosphoserine phosphatase
p57
sg15
I2
sasg6
(lp58
(dp59
g9
I0
sg10
VC1291463
p60
sg12
I39
sg13
VDeficiency of phosphoserine phosphatase
p61
sg15
I4
sasa(dp62
g2
S'Deficiency of lyase is an entity.'
p63
sg4
(lp64
(dp65
g9
I14
sg55
S''
p66
sg12
I5
sg13
Vlyase
p67
sg15
I1
sasg6
(lp68
(dp69
g9
I0
sg10
VC1291557
p70
sg12
I19
sg13
VDeficiency of lyase
p71
sg15
I3
sasa(dp72
g2
S'Ribose 5-Phosphate Isomerase Deficiency is an entity.'
p73
sg4
(lp74
(dp75
g9
I0
sg55
VP49247
p76
sg12
I28
sg13
VRibose 5-Phosphate Isomerase
p77
sg15
I3
sasg6
(lp78
(dp79
g9
I0
sg10
VC1291609
p80
sg12
I39
sg13
VRibose 5-Phosphate Isomerase Deficiency
p81
sg15
I4
sasa(dp82
g2
S'Deficiency of glucose-6-phosphate isomerase is an entity. \n'
p83
sg4
(lp84
(dp85
g9
I14
sg55
VP06744
p86
sg12
I29
sg13
Vglucose-6-phosphate isomerase
p87
sg15
I2
sasg6
(lp88
(dp89
g9
I0
sg10
VC1291611
p90
sg12
I43
sg13
VDeficiency of glucose-6-phosphate isomerase
p91
sg15
I4
sasa(dp92
g2
S'Myelodysplastic-Myeloproliferative Diseases is an entity.'
p93
sg4
(lp94
sg6
(lp95
(dp96
g9
I0
sg10
VC1301355
p97
sg12
I43
sg13
VMyelodysplastic-Myeloproliferative Diseases
p98
sg15
I2
sasa(dp99
g2
S'Ankyloblepharon filiforme adnatum is an entity.'
p100
sg4
(lp101
sg6
(lp102
(dp103
g9
I0
sg10
VC1302999
p104
sg12
I33
sg13
VAnkyloblepharon filiforme adnatum
p105
sg15
I3
sasa(dp106
g2
S'Epicanthus inversus is an entity.'
p107
sg4
(lp108
sg6
(lp109
(dp110
g9
I0
sg10
VC0678230
p111
sg12
I10
sg13
VEpicanthus
p112
sg15
I1
sasa(dp113
g2
S'Eruptive melanocytic nevi is an entity.'
p114
sg4
(lp115
sg6
(lp116
(dp117
g9
I0
sg10
VC1304321
p118
sg12
I25
sg13
VEruptive melanocytic nevi
p119
sg15
I3
sasa(dp120
g2
S'Oguchi disease is an entity.'
p121
sg4
(lp122
sg6
(lp123
(dp124
g9
I0
sg10
VC1306122
p125
sg12
I14
sg13
VOguchi disease
p126
sg15
I2
sasa(dp127
g2
S'Aggressive angiomyxoma is an entity.'
p128
sg4
(lp129
sg6
(lp130
(dp131
g9
I0
sg10
VC1306242
p132
sg12
I22
sg13
VAggressive angiomyxoma
p133
sg15
I2
sasa(dp134
g2
S'Acute encephalopathy is an entity.'
p135
sg4
(lp136
sg6
(lp137
(dp138
g9
I0
sg10
VC1306587
p139
sg12
I20
sg13
VAcute encephalopathy
p140
sg15
I2
sasa(dp141
g2
S'Trichorrhexis nodosa syndrome is an entity.'
p142
sg4
(lp143
sg6
(lp144
(dp145
g9
I0
sg10
VC1313961
p146
sg12
I29
sg13
VTrichorrhexis nodosa syndrome
p147
sg15
I3
sasa(dp148
g2
S'Liver regeneration disorder is an entity.'
p149
sg4
(lp150
sg6
(lp151
(dp152
g9
I0
sg10
VC1318485
p153
sg12
I27
sg13
VLiver regeneration disorder
p154
sg15
I3
sasa(dp155
g2
S'Infantile malignant osteopetrosis is an entity. \n'
p156
sg4
(lp157
sg6
(lp158
(dp159
g9
I0
sg10
VC1318518
p160
sg12
I33
sg13
VInfantile malignant osteopetrosis
p161
sg15
I3
sasa(dp162
g2
S'Staphylococcus aureus infection is an entity.'
p163
sg4
(lp164
sg6
(lp165
(dp166
g9
I0
sg10
VC1318973
p167
sg12
I31
sg13
VStaphylococcus aureus infection
p168
sg15
I3
sasa(dp169
g2
S'Asthma, Aspirin-Induced is an entity.'
p170
sg4
(lp171
sg6
(lp172
(dp173
g9
I0
sg10
VC0004096
p174
sg12
I6
sg13
VAsthma
p175
sg15
I1
sasa(dp176
g2
S'Nephrogenic rest is an entity.'
p177
sg4
(lp178
sg6
(lp179
(dp180
g9
I0
sg10
VC1320468
p181
sg12
I16
sg13
VNephrogenic rest
p182
sg15
I2
sasa(dp183
g2
S'Mesoblastic nephroma, cellular is an entity.'
p184
sg4
(lp185
sg6
(lp186
(dp187
g9
I0
sg10
VC1320471
p188
sg12
I30
sg13
VMesoblastic nephroma, cellular
p189
sg15
I3
sasa(dp190
g2
S'Peripheral degeneration of retina is an entity.'
p191
sg4
(lp192
sg6
(lp193
(dp194
g9
I0
sg10
VC1320640
p195
sg12
I33
sg13
VPeripheral degeneration of retina
p196
sg15
I4
sasa(dp197
g2
S'Stage IV Skin Melanoma is an entity.'
p198
sg4
(lp199
sg6
(lp200
(dp201
g9
I0
sg10
VC1321872
p202
sg12
I22
sg13
VStage IV Skin Melanoma
p203
sg15
I4
sasa(dp204
g2
S'Hormone refractory prostate cancer is an entity.'
p205
sg4
(lp206
sg6
(lp207
(dp208
g9
I0
sg10
VC1328504
p209
sg12
I34
sg13
VHormone refractory prostate cancer
p210
sg15
I4
sasa(dp211
g2
S'Anaplastic large cell lymphoma, ALK negative is an entity.'
p212
sg4
(lp213
(dp214
g9
I32
sg55
g66
sg12
I3
sg13
VALK
p215
sg15
I1
sasg6
(lp216
(dp217
g9
I0
sg10
VC1332078
p218
sg12
I44
sg13
VAnaplastic large cell lymphoma, ALK negative
p219
sg15
I6
sasa(dp220
g2
S'Atypical Adenomatous Lung Hyperplasia is an entity.'
p221
sg4
(lp222
sg6
(lp223
(dp224
g9
I0
sg10
VC1332345
p225
sg12
I37
sg13
VAtypical Adenomatous Lung Hyperplasia
p226
sg15
I4
sasa(dp227
g2
S'Brain Stem Glioblastoma is an entity. \n'
p228
sg4
(lp229
sg6
(lp230
(dp231
g9
I0
sg10
VC1332610
p232
sg12
I23
sg13
VBrain Stem Glioblastoma
p233
sg15
I3
sasa(dp234
g2
S'Calcifying Fibrous Pseudotumor is an entity.'
p235
sg4
(lp236
sg6
(lp237
(dp238
g9
I0
sg10
VC1332833
p239
sg12
I30
sg13
VCalcifying Fibrous Pseudotumor
p240
sg15
I3
sasa(dp241
g2
S'Congenital Mesoblastic Nephroma is an entity.'
p242
sg4
(lp243
sg6
(lp244
(dp245
g9
I0
sg10
VC1332965
p246
sg12
I31
sg13
VCongenital Mesoblastic Nephroma
p247
sg15
I3
sasa(dp248
g2
S'Childhood Osteosarcoma is an entity.'
p249
sg4
(lp250
sg6
(lp251
(dp252
g9
I0
sg10
VC1332986
p253
sg12
I22
sg13
VChildhood Osteosarcoma
p254
sg15
I2
sasa(dp255
g2
S'Flat Ductal Epithelial Atypia of the Breast is an entity.'
p256
sg4
(lp257
sg6
(lp258
(dp259
g9
I0
sg10
VC1333620
p260
sg12
I43
sg13
VFlat Ductal Epithelial Atypia of the Breast
p261
sg15
I7
sasa(dp262
g2
S'Gastric Mucosa-Associated Lymphoid Tissue Lymphoma is an entity.'
p263
sg4
(lp264
sg6
(lp265
(dp266
g9
I0
sg10
VC1333782
p267
sg12
I50
sg13
VGastric Mucosa-Associated Lymphoid Tissue Lymphoma
p268
sg15
I5
sasa(dp269
g2
S'Grade 3 Colorectal Adenocarcinoma is an entity.'
p270
sg4
(lp271
sg6
(lp272
(dp273
g9
I0
sg10
VC1333856
p274
sg12
I33
sg13
VGrade 3 Colorectal Adenocarcinoma
p275
sg15
I4
sasa(dp276
g2
S'B-Cell Lymphoma, Unclassifiable, with Features Intermediate between Diffuse Large B-Cell Lymphoma and Classical Hodgkin Lymphoma is an entity.'
p277
sg4
(lp278
sg6
(lp279
(dp280
g9
I0
sg10
VC1333878
p281
sg12
I128
sg13
VB-Cell Lymphoma, Unclassifiable, with Features Intermediate between Diffuse Large B-Cell Lymphoma and Classical Hodgkin Lymphoma
p282
sg15
I15
sasa(dp283
g2
S'Head and Neck Basaloid Carcinoma is an entity.'
p284
sg4
(lp285
sg6
(lp286
(dp287
g9
I0
sg10
VC1333940
p288
sg12
I32
sg13
VHead and Neck Basaloid Carcinoma
p289
sg15
I5
sasa(dp290
g2
S'Paragangliomas, head and neck is an entity.'
p291
sg4
(lp292
sg6
(lp293
(dp294
g9
I0
sg10
VC1333944
p295
sg12
I29
sg13
VParagangliomas, head and neck
p296
sg15
I4
sasa(dp297
g2
S'Histiocytic and Dendritic Cell Neoplasm is an entity. \n'
p298
sg4
(lp299
sg6
(lp300
(dp301
g9
I0
sg10
VC1334030
p302
sg12
I39
sg13
VHistiocytic and Dendritic Cell Neoplasm
p303
sg15
I5
sasa(dp304
g2
S'Invasive Apocrine Breast Carcinoma is an entity.'
p305
sg4
(lp306
sg6
(lp307
(dp308
g9
I0
sg10
VC1334272
p309
sg12
I34
sg13
VInvasive Apocrine Breast Carcinoma
p310
sg15
I4
sasa(dp311
g2
S'Low Grade Gastric Intraepithelial Neoplasia is an entity.'
p312
sg4
(lp313
sg6
(lp314
(dp315
g9
I0
sg10
VC1334415
p316
sg12
I43
sg13
VLow Grade Gastric Intraepithelial Neoplasia
p317
sg15
I5
sasa(dp318
g2
S'Mediastinal Germ Cell Tumor is an entity.'
p319
sg4
(lp320
sg6
(lp321
(dp322
g9
I0
sg10
VC1334655
p323
sg12
I27
sg13
VMediastinal Germ Cell Tumor
p324
sg15
I4
sasa(dp325
g2
S'Mediastinal Lymphoma is an entity.'
p326
sg4
(lp327
sg6
(lp328
(dp329
g9
I0
sg10
VC1334665
p330
sg12
I20
sg13
VMediastinal Lymphoma
p331
sg15
I2
sasa(dp332
g2
S'Megaloblastic Erythroid Hyperplasia is an entity.'
p333
sg4
(lp334
sg6
(lp335
(dp336
g9
I0
sg10
VC0002888
p337
sg12
I13
sg13
VMegaloblastic
p338
sg15
I1
sa(dp339
g9
I14
sg10
VC0014800
p340
sg12
I21
sg13
VErythroid Hyperplasia
p341
sg15
I2
sasa(dp342
g2
S'Ovarian Mucinous Tumor is an entity.'
p343
sg4
(lp344
sg6
(lp345
(dp346
g9
I0
sg10
VC1335168
p347
sg12
I22
sg13
VOvarian Mucinous Tumor
p348
sg15
I3
sasa(dp349
g2
S'Pancreatic Adenosquamous Carcinoma is an entity.'
p350
sg4
(lp351
sg6
(lp352
(dp353
g9
I0
sg10
VC1335299
p354
sg12
I34
sg13
VPancreatic Adenosquamous Carcinoma
p355
sg15
I3
sasa(dp356
g2
S'Gastric Burkitt Lymphoma is an entity.'
p357
sg4
(lp358
sg6
(lp359
(dp360
g9
I0
sg10
VC1335482
p361
sg12
I24
sg13
VGastric Burkitt Lymphoma
p362
sg15
I3
sasa(dp363
g2
S'Prostate Lymphoma is an entity.'
p364
sg4
(lp365
sg6
(lp366
(dp367
g9
I0
sg10
VC1335512
p368
sg12
I17
sg13
VProstate Lymphoma
p369
sg15
I2
sasa(dp370
g2
S'Breast Sclerosing Adenosis is an entity. \n'
p371
sg4
(lp372
sg6
(lp373
(dp374
g9
I0
sg10
VC1335931
p375
sg12
I26
sg13
VBreast Sclerosing Adenosis
p376
sg15
I3
sasa(dp377
g2
S'Skeletal Muscle Neoplasm is an entity.'
p378
sg4
(lp379
sg6
(lp380
(dp381
g9
I0
sg10
VC1335971
p382
sg12
I24
sg13
VSkeletal Muscle Neoplasm
p383
sg15
I3
sasa(dp384
g2
S'Gastrointestinal stromal tumor of small intestine is an entity.'
p385
sg4
(lp386
sg6
(lp387
(dp388
g9
I0
sg10
VC1335996
p389
sg12
I49
sg13
VGastrointestinal stromal tumor of small intestine
p390
sg15
I6
sasa(dp391
g2
S'Thymic Lymphoma is an entity.'
p392
sg4
(lp393
sg6
(lp394
(dp395
g9
I0
sg10
VC1336745
p396
sg12
I15
sg13
VThymic Lymphoma
p397
sg15
I2
sasa(dp398
g2
S'Type 1 Papillary Renal Cell Carcinoma is an entity.'
p399
sg4
(lp400
sg6
(lp401
(dp402
g9
I0
sg10
VC1336839
p403
sg12
I37
sg13
VType 1 Papillary Renal Cell Carcinoma
p404
sg15
I6
sasa(dp405
g2
S'Undifferentiated Pancreatic Carcinoma is an entity.'
p406
sg4
(lp407
sg6
(lp408
(dp409
g9
I0
sg10
VC1336861
p410
sg12
I37
sg13
VUndifferentiated Pancreatic Carcinoma
p411
sg15
I3
sasa(dp412
g2
S'Paget Disease is an entity.'
p413
sg4
(lp414
sg6
(lp415
(dp416
g9
I0
sg10
VC1368019
p417
sg12
I13
sg13
VPaget Disease
p418
sg15
I2
sasa(dp419
g2
S'Hypopharyngeal Carcinoma is an entity.'
p420
sg4
(lp421
sg6
(lp422
(dp423
g9
I0
sg10
VC1368404
p424
sg12
I24
sg13
VHypopharyngeal Carcinoma
p425
sg15
I2
sasa(dp426
g2
S'Stromal sarcoma is an entity.'
p427
sg4
(lp428
sg6
(lp429
(dp430
g9
I0
sg10
VC0206630
p431
sg12
I15
sg13
VStromal sarcoma
p432
sg15
I2
sasa(dp433
g2
S'Pleural Mesothelioma is an entity.'
p434
sg4
(lp435
sg6
(lp436
(dp437
g9
I0
sg10
VC0812413
p438
sg12
I20
sg13
VPleural Mesothelioma
p439
sg15
I2
sasa(dp440
g2
S'Benign vascular neoplasm is an entity. \n'
p441
sg4
(lp442
sg6
(lp443
(dp444
g9
I0
sg10
VC1377916
p445
sg12
I24
sg13
VBenign vascular neoplasm
p446
sg15
I3
sasa(dp447
g2
S'Undifferentiated leukemia is an entity.'
p448
sg4
(lp449
sg6
(lp450
(dp451
g9
I0
sg10
VC1378511
p452
sg12
I25
sg13
VUndifferentiated leukemia
p453
sg15
I2
sasa(dp454
g2
S'Single umbilical artery is an entity.'
p455
sg4
(lp456
sg6
(lp457
(dp458
g9
I0
sg10
VC0266795
p459
sg12
I23
sg13
VSingle umbilical artery
p460
sg15
I3
sasa(dp461
g2
S'facial deformity is an entity.'
p462
sg4
(lp463
sg6
(lp464
(dp465
g9
I0
sg10
VC1385263
p466
sg12
I16
sg13
Vfacial deformity
p467
sg15
I2
sasa(dp468
g2
S'Arteriosclerosis of aorta is an entity.'
p469
sg4
(lp470
sg6
(lp471
(dp472
g9
I0
sg10
VC0003850
p473
sg12
I16
sg13
VArteriosclerosis
p474
sg15
I1
sasa(dp475
g2
S'Atrophic spinal cord is an entity.'
p476
sg4
(lp477
sg6
(lp478
(dp479
g9
I0
sg10
VC0333641
p480
sg12
I8
sg13
VAtrophic
p481
sg15
I1
sa(dp482
g9
I16
sg10
VC0035334
p483
sg12
I4
sg13
Vcord
p484
sg15
I1
sasa(dp485
g2
S'Generalized amyotrophy is an entity.'
p486
sg4
(lp487
sg6
(lp488
(dp489
g9
I12
sg10
VC0026846
p490
sg12
I10
sg13
Vamyotrophy
p491
sg15
I1
sasa(dp492
g2
S'Increased susceptibility to fractures is an entity.'
p493
sg4
(lp494
sg6
(lp495
sa(dp496
g2
S'Centrocytic lymphoma is an entity.'
p497
sg4
(lp498
sg6
(lp499
(dp500
g9
I0
sg10
VC1392224
p501
sg12
I20
sg13
VCentrocytic lymphoma
p502
sg15
I2
sasa(dp503
g2
S'Intrinsic Factor Deficiency is an entity.'
p504
sg4
(lp505
sg6
(lp506
(dp507
g9
I0
sg10
VC1394891
p508
sg12
I27
sg13
VIntrinsic Factor Deficiency
p509
sg15
I3
sasa(dp510
g2
S'Perioral eczema is an entity. \n'
p511
sg4
(lp512
sg6
(lp513
(dp514
g9
I0
sg10
VC1396126
p515
sg12
I15
sg13
VPerioral eczema
p516
sg15
I2
sasa(dp517
g2
S'Attention deficit-hyperactivity is an entity.'
p518
sg4
(lp519
sg6
(lp520
(dp521
g9
I0
sg10
VC1399930
p522
sg12
I31
sg13
VAttention deficit-hyperactivity
p523
sg15
I2
sasa(dp524
g2
S'Vaccine associated paralytic poliomyelitis is an entity.'
p525
sg4
(lp526
sg6
(lp527
(dp528
g9
I29
sg10
VC0032371
p529
sg12
I13
sg13
Vpoliomyelitis
p530
sg15
I1
sasa(dp531
g2
S'Developmental arithmetic disorder is an entity.'
p532
sg4
(lp533
sg6
(lp534
(dp535
g9
I0
sg10
VC1411876
p536
sg12
I33
sg13
VDevelopmental arithmetic disorder
p537
sg15
I3
sasa(dp538
g2
S'Myocardial necrosis is an entity.'
p539
sg4
(lp540
sg6
(lp541
(dp542
g9
I0
sg10
VC1442837
p543
sg12
I19
sg13
VMyocardial necrosis
p544
sg15
I2
sasa(dp545
g2
S'Poor eye contact is an entity.'
p546
sg4
(lp547
sg6
(lp548
sa(dp549
g2
S'Aortic valve sclerosis is an entity.'
p550
sg4
(lp551
sg6
(lp552
(dp553
g9
I0
sg10
VC0428796
p554
sg12
I22
sg13
VAortic valve sclerosis
p555
sg15
I3
sasa(dp556
g2
S'Squamous odontogenic tumor is an entity.'
p557
sg4
(lp558
sg6
(lp559
(dp560
g9
I0
sg10
VC1458142
p561
sg12
I26
sg13
VSquamous odontogenic tumor
p562
sg15
I3
sasa(dp563
g2
S'Partial chromosome Y deletion is an entity.'
p564
sg4
(lp565
sg6
(lp566
sa(dp567
g2
S'choroid plexus carcinoma, childhood is an entity.'
p568
sg4
(lp569
sg6
(lp570
(dp571
g9
I0
sg10
VC0431109
p572
sg12
I24
sg13
Vchoroid plexus carcinoma
p573
sg15
I3
sasa(dp574
g2
S'Diverticulosis is an entity. \n'
p575
sg4
(lp576
sg6
(lp577
(dp578
g9
I0
sg10
VC1510475
p579
sg12
I14
sg13
VDiverticulosis
p580
sg15
I1
sasa(dp581
g2
S'Breast Diffuse Large B-Cell Lymphoma is an entity.'
p582
sg4
(lp583
sg6
(lp584
(dp585
g9
I0
sg10
VC1511306
p586
sg12
I36
sg13
VBreast Diffuse Large B-Cell Lymphoma
p587
sg15
I5
sasa(dp588
g2
S'Hepatocarcinogenesis is an entity.'
p589
sg4
(lp590
sg6
(lp591
(dp592
g9
I0
sg10
VC1512409
p593
sg12
I20
sg13
VHepatocarcinogenesis
p594
sg15
I1
sasa(dp595
g2
S'Cellular Congenital Mesoblastic Nephroma is an entity.'
p596
sg4
(lp597
sg6
(lp598
(dp599
g9
I0
sg10
VC1516474
p600
sg12
I40
sg13
VCellular Congenital Mesoblastic Nephroma
p601
sg15
I4
sasa(dp602
g2
S'Endometrial Undifferentiated Carcinoma is an entity.'
p603
sg4
(lp604
sg6
(lp605
(dp606
g9
I0
sg10
VC1516865
p607
sg12
I38
sg13
VEndometrial Undifferentiated Carcinoma
p608
sg15
I3
sasa(dp609
g2
S'Cervical Keratinizing Squamous Cell Carcinoma is an entity.'
p610
sg4
(lp611
sg6
(lp612
(dp613
g9
I0
sg10
VC1517658
p614
sg12
I45
sg13
VCervical Keratinizing Squamous Cell Carcinoma
p615
sg15
I5
sasa(dp616
g2
S'Ovarian Fetiform Teratoma is an entity.'
p617
sg4
(lp618
sg6
(lp619
(dp620
g9
I0
sg10
VC1518715
p621
sg12
I25
sg13
VOvarian Fetiform Teratoma
p622
sg15
I3
sasa(dp623
g2
S'Salivary Gland Pleomorphic Adenoma is an entity.'
p624
sg4
(lp625
sg6
(lp626
(dp627
g9
I0
sg10
VC1519176
p628
sg12
I34
sg13
VSalivary Gland Pleomorphic Adenoma
p629
sg15
I4
sasa(dp630
g2
S'Skin Carcinogenesis is an entity.'
p631
sg4
(lp632
sg6
(lp633
(dp634
g9
I0
sg10
VC1519346
p635
sg12
I19
sg13
VSkin Carcinogenesis
p636
sg15
I2
sasa(dp637
g2
S'Tumor Immunity is an entity.'
p638
sg4
(lp639
sg6
(lp640
(dp641
g9
I0
sg10
VC1519680
p642
sg12
I14
sg13
VTumor Immunity
p643
sg15
I2
sasa(dp644
g2
S'Hypertriglyceridemia result is an entity. \n'
p645
sg4
(lp646
sg6
(lp647
sa(dp648
g2
S"Sjogren's Syndrome is an entity."
p649
sg4
(lp650
sg6
(lp651
(dp652
g9
I0
sg10
VC1527336
p653
sg12
I18
sg13
VSjogren's Syndrome
p654
sg15
I2
sasa(dp655
g2
S'Morphea is an entity.'
p656
sg4
(lp657
sg6
(lp658
(dp659
g9
I0
sg10
VC0036420
p660
sg12
I7
sg13
VMorphea
p661
sg15
I1
sasa(dp662
g2
S'Perinatal jaundice is an entity.'
p663
sg4
(lp664
sg6
(lp665
(dp666
g9
I0
sg10
VC1531394
p667
sg12
I18
sg13
VPerinatal jaundice
p668
sg15
I2
sasa(dp669
g2
S'fertility disorders is an entity.'
p670
sg4
(lp671
sg6
(lp672
(dp673
g9
I0
sg10
VC1533568
p674
sg12
I19
sg13
Vfertility disorders
p675
sg15
I2
sasa(dp676
g2
S'Malignant Paraganglionic Neoplasm is an entity.'
p677
sg4
(lp678
sg6
(lp679
(dp680
g9
I0
sg10
VC1533592
p681
sg12
I33
sg13
VMalignant Paraganglionic Neoplasm
p682
sg15
I3
sasa(dp683
g2
S'adult acute myeloid leukemia with inv(16)(p13;q22) is an entity.'
p684
sg4
(lp685
(dp686
g9
I42
sg55
g66
sg12
I3
sg13
Vp13
p687
sg15
I1
sasg6
(lp688
(dp689
g9
I0
sg10
VC0220615
p690
sg12
I28
sg13
Vadult acute myeloid leukemia
p691
sg15
I4
sasa(dp692
g2
S'Haptoglobin Adverse Event is an entity.'
p693
sg4
(lp694
(dp695
g9
I0
sg55
VP00738
p696
sg12
I11
sg13
VHaptoglobin
p697
sg15
I1
sasg6
(lp698
sa(dp699
g2
S'Undifferentiated inflammatory arthritis is an entity.'
p700
sg4
(lp701
sg6
(lp702
(dp703
g9
I0
sg10
VC1562028
p704
sg12
I39
sg13
VUndifferentiated inflammatory arthritis
p705
sg15
I3
sasa(dp706
g2
S'Hormone receptor positive tumor is an entity.'
p707
sg4
(lp708
sg6
(lp709
(dp710
g9
I0
sg10
VC1563119
p711
sg12
I31
sg13
VHormone receptor positive tumor
p712
sg15
I4
sasa(dp713
g2
S'Acute Kidney Insufficiency is an entity. \n'
p714
sg4
(lp715
sg6
(lp716
(dp717
g9
I0
sg10
VC1565662
p718
sg12
I26
sg13
VAcute Kidney Insufficiency
p719
sg15
I3
sasa(dp720
g2
S'Congenital corneal dystrophy is an entity.'
p721
sg4
(lp722
sg6
(lp723
(dp724
g9
I0
sg10
VC1611195
p725
sg12
I28
sg13
VCongenital corneal dystrophy
p726
sg15
I3
sasa(dp727
g2
S'Myosclerosis is an entity.'
p728
sg4
(lp729
sg6
(lp730
(dp731
g9
I0
sg10
VC1611706
p732
sg12
I12
sg13
VMyosclerosis
p733
sg15
I1
sasa(dp734
g2
S'VENTRICULAR TACHYCARDIA, CATECHOLAMINERGIC POLYMORPHIC, 1 (disorder) is an entity.'
p735
sg4
(lp736
sg6
(lp737
(dp738
g9
I0
sg10
VC0042514
p739
sg12
I23
sg13
VVENTRICULAR TACHYCARDIA
p740
sg15
I2
sasa(dp741
g2
S'androgen independent prostate cancer is an entity.'
p742
sg4
(lp743
sg6
(lp744
(dp745
g9
I0
sg10
VC1654637
p746
sg12
I36
sg13
Vandrogen independent prostate cancer
p747
sg15
I4
sasa(dp748
g2
S'Macular corneal dystrophy Type II (disorder) is an entity.'
p749
sg4
(lp750
sg6
(lp751
(dp752
g9
I0
sg10
VC1691013
p753
sg12
I33
sg13
VMacular corneal dystrophy Type II
p754
sg15
I5
sasa(dp755
g2
S'Spontaneous haematoma is an entity.'
p756
sg4
(lp757
sg6
(lp758
(dp759
g9
I0
sg10
VC1697453
p760
sg12
I21
sg13
VSpontaneous haematoma
p761
sg15
I2
sasa(dp762
g2
S'Pneumonia, Ventilator-Associated is an entity.'
p763
sg4
(lp764
sg6
(lp765
(dp766
g9
I0
sg10
VC1701940
p767
sg12
I32
sg13
VPneumonia, Ventilator-Associated
p768
sg15
I2
sasa(dp769
g2
S'Osteoblastic Osteosarcoma is an entity.'
p770
sg4
(lp771
sg6
(lp772
(dp773
g9
I0
sg10
VC1704328
p774
sg12
I25
sg13
VOsteoblastic Osteosarcoma
p775
sg15
I2
sasa(dp776
g2
S'Dental Diseases is an entity.'
p777
sg4
(lp778
sg6
(lp779
(dp780
g9
I0
sg10
VC0040435
p781
sg12
I15
sg13
VDental Diseases
p782
sg15
I2
sasa(dp783
g2
S'Compulsive Personality Disorder is an entity. \n'
p784
sg4
(lp785
sg6
(lp786
(dp787
g9
I0
sg10
VC1704373
p788
sg12
I31
sg13
VCompulsive Personality Disorder
p789
sg15
I3
sasa(dp790
g2
S'Hyperparathyroidism-Jaw Tumor Syndrome is an entity.'
p791
sg4
(lp792
sg6
(lp793
(dp794
g9
I0
sg10
VC1704981
p795
sg12
I38
sg13
VHyperparathyroidism-Jaw Tumor Syndrome
p796
sg15
I3
sasa(dp797
g2
S'Colorectal Signet Ring Cell Carcinoma is an entity.'
p798
sg4
(lp799
sg6
(lp800
(dp801
g9
I0
sg10
VC1707440
p802
sg12
I37
sg13
VColorectal Signet Ring Cell Carcinoma
p803
sg15
I5
sasa(dp804
g2
S'Hereditary Diffuse Gastric Cancer is an entity.'
p805
sg4
(lp806
sg6
(lp807
(dp808
g9
I0
sg10
VC1708349
p809
sg12
I33
sg13
VHereditary Diffuse Gastric Cancer
p810
sg15
I4
sasa(dp811
g2
S'Invasive Prostate Carcinoma is an entity.'
p812
sg4
(lp813
sg6
(lp814
(dp815
g9
I0
sg10
VC1708566
p816
sg12
I27
sg13
VInvasive Prostate Carcinoma
p817
sg15
I3
sasa(dp818
g2
S'mucinous adenocarcinoma of lung is an entity.'
p819
sg4
(lp820
sg6
(lp821
(dp822
g9
I0
sg10
VC0007130
p823
sg12
I23
sg13
Vmucinous adenocarcinoma
p824
sg15
I2
sasa(dp825
g2
S'Lung Sarcomatoid Carcinoma is an entity.'
p826
sg4
(lp827
sg6
(lp828
(dp829
g9
I0
sg10
VC1708781
p830
sg12
I26
sg13
VLung Sarcomatoid Carcinoma
p831
sg15
I3
sasa(dp832
g2
S'Papillary Thyroid Microcarcinoma is an entity.'
p833
sg4
(lp834
sg6
(lp835
(dp836
g9
I0
sg10
VC1709457
p837
sg12
I32
sg13
VPapillary Thyroid Microcarcinoma
p838
sg15
I3
sasa(dp839
g2
S'Pleomorphic Hyalinizing Angiectatic Tumor of Soft Parts is an entity.'
p840
sg4
(lp841
sg6
(lp842
(dp843
g9
I0
sg10
VC1709569
p844
sg12
I55
sg13
VPleomorphic Hyalinizing Angiectatic Tumor of Soft Parts
p845
sg15
I7
sasa(dp846
g2
S'Pyloric Gland Adenoma is an entity.'
p847
sg4
(lp848
sg6
(lp849
(dp850
g9
I0
sg10
VC1709780
p851
sg12
I21
sg13
VPyloric Gland Adenoma
p852
sg15
I3
sasa(dp853
g2
S'Inherited systemic amyloidosis is an entity. \n'
p854
sg4
(lp855
sg6
(lp856
(dp857
g9
I0
sg10
VC1719316
p858
sg12
I30
sg13
VInherited systemic amyloidosis
p859
sg15
I3
sasa(dp860
g2
S'PERIODONTITIS, LOCALIZED AGGRESSIVE is an entity.'
p861
sg4
(lp862
sg6
(lp863
(dp864
g9
I0
sg10
VC1719494
p865
sg12
I35
sg13
VPERIODONTITIS, LOCALIZED AGGRESSIVE
p866
sg15
I3
sasa(dp867
g2
S'Simple ectopia lentis is an entity.'
p868
sg4
(lp869
sg6
(lp870
(dp871
g9
I0
sg10
VC1720383
p872
sg12
I21
sg13
VSimple ectopia lentis
p873
sg15
I3
sasa(dp874
g2
S'Endometrial Diseases is an entity.'
p875
sg4
(lp876
sg6
(lp877
(dp878
g9
I0
sg10
VC1720816
p879
sg12
I20
sg13
VEndometrial Diseases
p880
sg15
I2
sasa(dp881
g2
S'Familial Partial Lipodystrophy, Type 1 is an entity.'
p882
sg4
(lp883
sg6
(lp884
(dp885
g9
I0
sg10
VC1720859
p886
sg12
I38
sg13
VFamilial Partial Lipodystrophy, Type 1
p887
sg15
I5
sasa(dp888
g2
S'Congenital Generalized Lipodystrophy Type 1 is an entity.'
p889
sg4
(lp890
sg6
(lp891
(dp892
g9
I0
sg10
VC1720862
p893
sg12
I43
sg13
VCongenital Generalized Lipodystrophy Type 1
p894
sg15
I5
sasa(dp895
g2
S'DEAFNESS, AUTOSOMAL RECESSIVE 70 is an entity.'
p896
sg4
(lp897
sg6
(lp898
(dp899
g9
I0
sg10
VC1846647
p900
sg12
I29
sg13
VDEAFNESS, AUTOSOMAL RECESSIVE
p901
sg15
I3
sasa(dp902
g2
S'Tongue thrusting is an entity.'
p903
sg4
(lp904
sg6
(lp905
sa(dp906
g2
S'Carnitine palmitoyl transferase 1A deficiency is an entity.'
p907
sg4
(lp908
(dp909
g9
I0
sg55
g66
sg12
I34
sg13
VCarnitine palmitoyl transferase 1A
p910
sg15
I4
sasg6
(lp911
(dp912
g9
I0
sg10
VC1829703
p913
sg12
I45
sg13
VCarnitine palmitoyl transferase 1A deficiency
p914
sg15
I5
sasa(dp915
g2
S'HYPOTRICHOSIS, CONGENITAL, WITH JUVENILE MACULAR DYSTROPHY is an entity.'
p916
sg4
(lp917
(dp918
g9
I27
sg55
g66
sg12
I31
sg13
VWITH JUVENILE MACULAR DYSTROPHY
p919
sg15
I4
sasg6
(lp920
(dp921
g9
I0
sg10
VC1832162
p922
sg12
I58
sg13
VHYPOTRICHOSIS, CONGENITAL, WITH JUVENILE MACULAR DYSTROPHY
p923
sg15
I6
sasa(dp924
g2
S'Cataract, Congenital, Cerulean Type, 2 is an entity. \n'
p925
sg4
(lp926
sg6
(lp927
(dp928
g9
I0
sg10
VC1832175
p929
sg12
I38
sg13
VCataract, Congenital, Cerulean Type, 2
p930
sg15
I5
sasa(dp931
g2
S'Ribbing disease is an entity.'
p932
sg4
(lp933
sg6
(lp934
(dp935
g9
I0
sg10
VC1832273
p936
sg12
I15
sg13
VRibbing disease
p937
sg15
I2
sasa(dp938
g2
S'Platelet Disorder, Familial, with Associated Myeloid Malignancy is an entity.'
p939
sg4
(lp940
sg6
(lp941
(dp942
g9
I0
sg10
VC1832388
p943
sg12
I63
sg13
VPlatelet Disorder, Familial, with Associated Myeloid Malignancy
p944
sg15
I7
sasa(dp945
g2
S'DIABETES MELLITUS, INSULIN-DEPENDENT, 12 is an entity.'
p946
sg4
(lp947
sg6
(lp948
(dp949
g9
I0
sg10
VC1832392
p950
sg12
I40
sg13
VDIABETES MELLITUS, INSULIN-DEPENDENT, 12
p951
sg15
I4
sasa(dp952
g2
S'EKG abnormalities is an entity.'
p953
sg4
(lp954
sg6
(lp955
sa(dp956
g2
S'Hypercalciuric Hypercalcemia is an entity.'
p957
sg4
(lp958
sg6
(lp959
(dp960
g9
I0
sg10
VC1832611
p961
sg12
I28
sg13
VHypercalciuric Hypercalcemia
p962
sg15
I2
sasa(dp963
g2
S'Dysfunction of lateral corticospinal tracts is an entity.'
p964
sg4
(lp965
sg6
(lp966
sa(dp967
g2
S'MIGRAINE, SPORADIC HEMIPLEGIC is an entity.'
p968
sg4
(lp969
sg6
(lp970
(dp971
g9
I0
sg10
VC1832903
p972
sg12
I29
sg13
VMIGRAINE, SPORADIC HEMIPLEGIC
p973
sg15
I3
sasa(dp974
g2
S'Proprotein Convertase 1 3 Deficiency is an entity.'
p975
sg4
(lp976
(dp977
g9
I0
sg55
VP29120
p978
sg12
I25
sg13
VProprotein Convertase 1 3
p979
sg15
I4
sasg6
(lp980
sa(dp981
g2
S'Small platelet size is an entity.'
p982
sg4
(lp983
sg6
(lp984
sa(dp985
g2
S'SCHIZOPHRENIA 4 (disorder) is an entity. \n'
p986
sg4
(lp987
(dp988
g9
I0
sg55
VP35462
p989
sg12
I15
sg13
VSCHIZOPHRENIA 4
p990
sg15
I2
sasg6
(lp991
(dp992
g9
I0
sg10
VC1833247
p993
sg12
I15
sg13
VSCHIZOPHRENIA 4
p994
sg15
I2
sasa(dp995
g2
S'CHORIORETINAL ATROPHY, PROGRESSIVE BIFOCAL is an entity.'
p996
sg4
(lp997
sg6
(lp998
(dp999
g9
I0
sg10
VC1833321
p1000
sg12
I42
sg13
VCHORIORETINAL ATROPHY, PROGRESSIVE BIFOCAL
p1001
sg15
I4
sasa(dp1002
g2
S"'Bulging' epiphyses is an entity."
p1003
sg4
(lp1004
sg6
(lp1005
(dp1006
g9
I0
sg10
VC0333056
p1007
sg12
I8
sg13
V'Bulging
p1008
sg15
I1
sasa(dp1009
g2
S'Osteopoikilosis, Isolated is an entity.'
p1010
sg4
(lp1011
sg6
(lp1012
(dp1013
g9
I0
sg10
VC1833699
p1014
sg12
I25
sg13
VOsteopoikilosis, Isolated
p1015
sg15
I2
sasa(dp1016
g2
S'Tarsal bone osteolysis is an entity.'
p1017
sg4
(lp1018
sg6
(lp1019
(dp1020
g9
I12
sg10
VC0029435
p1021
sg12
I10
sg13
Vosteolysis
p1022
sg15
I1
sasa(dp1023
g2
S'Thin hypoplastic alae nasi is an entity.'
p1024
sg4
(lp1025
sg6
(lp1026
sa(dp1027
g2
S'Markedly reduced T cell function is an entity.'
p1028
sg4
(lp1029
sg6
(lp1030
sa(dp1031
g2
S'Potato nose is an entity.'
p1032
sg4
(lp1033
sg6
(lp1034
(dp1035
g9
I0
sg10
VC1834118
p1036
sg12
I11
sg13
VPotato nose
p1037
sg15
I2
sasa(dp1038
g2
S'Narcolepsy 1 is an entity.'
p1039
sg4
(lp1040
sg6
(lp1041
(dp1042
g9
I0
sg10
VC1834372
p1043
sg12
I12
sg13
VNarcolepsy 1
p1044
sg15
I2
sasa(dp1045
g2
S'MYOCLONUS AND ATAXIA is an entity.'
p1046
sg4
(lp1047
sg6
(lp1048
(dp1049
g9
I0
sg10
VC1834580
p1050
sg12
I20
sg13
VMYOCLONUS AND ATAXIA
p1051
sg15
I3
sasa(dp1052
g2
S'Muscular dystrophy, limb-girdle, type 1A is an entity. \n'
p1053
sg4
(lp1054
sg6
(lp1055
(dp1056
g9
I0
sg10
VC1834659
p1057
sg12
I40
sg13
VMuscular dystrophy, limb-girdle, type 1A
p1058
sg15
I5
sasa(dp1059
g2
S'Nasal, dysarthic speech is an entity.'
p1060
sg4
(lp1061
sg6
(lp1062
sa(dp1063
g2
S'Hyporeflexia of lower limbs is an entity.'
p1064
sg4
(lp1065
sg6
(lp1066
sa(dp1067
g2
S'Metaphyseal Dysplasia with Maxillary Hypoplasia and Brachydactyly is an entity.'
p1068
sg4
(lp1069
sg6
(lp1070
(dp1071
g9
I0
sg10
VC1834969
p1072
sg12
I65
sg13
VMetaphyseal Dysplasia with Maxillary Hypoplasia and Brachydactyly
p1073
sg15
I7
sasa(dp1074
g2
S'Irregular acetabular roof is an entity.'
p1075
sg4
(lp1076
sg6
(lp1077
sa(dp1078
g2
S'Megaduodenum and-or Megacystis is an entity.'
p1079
sg4
(lp1080
sg6
(lp1081
(dp1082
g9
I0
sg10
VC0266177
p1083
sg12
I12
sg13
VMegaduodenum
p1084
sg15
I1
sasa(dp1085
g2
S'Premature osteoarthritis is an entity.'
p1086
sg4
(lp1087
sg6
(lp1088
(dp1089
g9
I10
sg10
VC0029408
p1090
sg12
I14
sg13
Vosteoarthritis
p1091
sg15
I1
sasa(dp1092
g2
S'Lymphedema, predominantly in the lower limbs is an entity.'
p1093
sg4
(lp1094
sg6
(lp1095
(dp1096
g9
I0
sg10
VC0024236
p1097
sg12
I10
sg13
VLymphedema
p1098
sg15
I1
sasa(dp1099
g2
S'Prominent fingertip pads is an entity.'
p1100
sg4
(lp1101
sg6
(lp1102
sa(dp1103
g2
S'Fluctuating hepatomegaly is an entity.'
p1104
sg4
(lp1105
sg6
(lp1106
(dp1107
g9
I12
sg10
VC0019209
p1108
sg12
I12
sg13
Vhepatomegaly
p1109
sg15
I1
sasa(dp1110
g2
S'Triangular face is an entity. \n'
p1111
sg4
(lp1112
sg6
(lp1113
(dp1114
g9
I11
sg10
VC3160739
p1115
sg12
I4
sg13
Vface
p1116
sg15
I1
sasa(dp1117
g2
S'RETINITIS PIGMENTOSA 33 (disorder) is an entity.'
p1118
sg4
(lp1119
sg6
(lp1120
(dp1121
g9
I0
sg10
VC1835895
p1122
sg12
I23
sg13
VRETINITIS PIGMENTOSA 33
p1123
sg15
I3
sasa(dp1124
g2
S'CARDIOMYOPATHY, DILATED, 1Q (disorder) is an entity.'
p1125
sg4
(lp1126
(dp1127
g9
I0
sg55
VP21941
p1128
sg12
I14
sg13
VCARDIOMYOPATHY
p1129
sg15
I1
sasg6
(lp1130
(dp1131
g9
I0
sg10
VC1835926
p1132
sg12
I27
sg13
VCARDIOMYOPATHY, DILATED, 1Q
p1133
sg15
I3
sasa(dp1134
g2
S'Decreased activities of mitochondrial-encoded respiratory chain complexes is an entity.'
p1135
sg4
(lp1136
sg6
(lp1137
sa(dp1138
g2
S'Stickler Syndrome, Type I, Nonsyndromic Ocular is an entity.'
p1139
sg4
(lp1140
sg6
(lp1141
(dp1142
g9
I0
sg10
VC1836080
p1143
sg12
I46
sg13
VStickler Syndrome, Type I, Nonsyndromic Ocular
p1144
sg15
I6
sasa(dp1145
g2
S'SARCOIDOSIS, EARLY-ONSET is an entity.'
p1146
sg4
(lp1147
sg6
(lp1148
(dp1149
g9
I0
sg10
VC1836122
p1150
sg12
I24
sg13
VSARCOIDOSIS, EARLY-ONSET
p1151
sg15
I2
sasa(dp1152
g2
S'Short femoral neck is an entity.'
p1153
sg4
(lp1154
sg6
(lp1155
sa(dp1156
g2
S'Fibular aplasia is an entity.'
p1157
sg4
(lp1158
sg6
(lp1159
(dp1160
g9
I8
sg10
VC0243065
p1161
sg12
I7
sg13
Vaplasia
p1162
sg15
I1
sasa(dp1163
g2
S'Synostosis of carpal bones is an entity.'
p1164
sg4
(lp1165
sg6
(lp1166
(dp1167
g9
I0
sg10
VC1368355
p1168
sg12
I10
sg13
VSynostosis
p1169
sg15
I1
sasa(dp1170
g2
S'Absent carpal bones is an entity.'
p1171
sg4
(lp1172
sg6
(lp1173
sa(dp1174
g2
S'Cataract, Congenital Nuclear, Autosomal Recessive 1 is an entity. \n'
p1175
sg4
(lp1176
sg6
(lp1177
(dp1178
g9
I0
sg10
VC1836272
p1179
sg12
I51
sg13
VCataract, Congenital Nuclear, Autosomal Recessive 1
p1180
sg15
I6
sasa(dp1181
g2
S'Decreased hip abduction is an entity.'
p1182
sg4
(lp1183
sg6
(lp1184
sa(dp1185
g2
S'Total Hypotrichosis, Mari type is an entity.'
p1186
sg4
(lp1187
sg6
(lp1188
(dp1189
g9
I0
sg10
VC1836672
p1190
sg12
I30
sg13
VTotal Hypotrichosis, Mari type
p1191
sg15
I4
sasa(dp1192
g2
S'MALARIA, MILD, SUSCEPTIBILITY TO is an entity.'
p1193
sg4
(lp1194
sg6
(lp1195
(dp1196
g9
I0
sg10
VC0024530
p1197
sg12
I7
sg13
VMALARIA
p1198
sg15
I1
sasa(dp1199
g2
S'Peripheral Demyelinating Neuropathy, Central Dysmyelination, Waardenburg Syndrome, and Hirschsprung Disease is an entity.'
p1200
sg4
(lp1201
sg6
(lp1202
(dp1203
g9
I0
sg10
VC1836727
p1204
sg12
I107
sg13
VPeripheral Demyelinating Neuropathy, Central Dysmyelination, Waardenburg Syndrome, and Hirschsprung Disease
p1205
sg15
I10
sasa(dp1206
g2
S'Tortuous cerebral arteries is an entity.'
p1207
sg4
(lp1208
sg6
(lp1209
sa(dp1210
g2
S'POSTERIOR COLUMN ATAXIA WITH RETINITIS PIGMENTOSA is an entity.'
p1211
sg4
(lp1212
sg6
(lp1213
(dp1214
g9
I0
sg10
VC1836916
p1215
sg12
I49
sg13
VPOSTERIOR COLUMN ATAXIA WITH RETINITIS PIGMENTOSA
p1216
sg15
I6
sasa(dp1217
g2
S'Recurrent viral infections is an entity.'
p1218
sg4
(lp1219
sg6
(lp1220
(dp1221
g9
I10
sg10
VC0042769
p1222
sg12
I16
sg13
Vviral infections
p1223
sg15
I2
sasa(dp1224
g2
S'Myasthenic Syndrome, Congenital, Fast-Channel is an entity.'
p1225
sg4
(lp1226
sg6
(lp1227
(dp1228
g9
I0
sg10
VC1837122
p1229
sg12
I45
sg13
VMyasthenic Syndrome, Congenital, Fast-Channel
p1230
sg15
I4
sasa(dp1231
g2
S'Long-chain dicarboxylic aciduria is an entity.'
p1232
sg4
(lp1233
sg6
(lp1234
(dp1235
g9
I0
sg10
VC1837273
p1236
sg12
I32
sg13
VLong-chain dicarboxylic aciduria
p1237
sg15
I3
sasa(dp1238
g2
S'Hypoplastic toenails is an entity. \n'
p1239
sg4
(lp1240
sg6
(lp1241
sa(dp1242
g2
S'Dysplastic testes is an entity.'
p1243
sg4
(lp1244
sg6
(lp1245
(dp1246
g9
I0
sg10
VC0334044
p1247
sg12
I10
sg13
VDysplastic
p1248
sg15
I1
sasa(dp1249
g2
S'Poor growth is an entity.'
p1250
sg4
(lp1251
sg6
(lp1252
sa(dp1253
g2
S'MOYAMOYA DISEASE 3 is an entity.'
p1254
sg4
(lp1255
sg6
(lp1256
(dp1257
g9
I0
sg10
VC1837418
p1258
sg12
I18
sg13
VMOYAMOYA DISEASE 3
p1259
sg15
I3
sasa(dp1260
g2
S'Axonal degeneration is an entity.'
p1261
sg4
(lp1262
sg6
(lp1263
(dp1264
g9
I7
sg10
VC0011164
p1265
sg12
I12
sg13
Vdegeneration
p1266
sg15
I1
sasa(dp1267
g2
S'Phenotypic variability is an entity.'
p1268
sg4
(lp1269
sg6
(lp1270
sa(dp1271
g2
S'Decreased pain sensation is an entity.'
p1272
sg4
(lp1273
sg6
(lp1274
sa(dp1275
g2
S'Fused labia minora is an entity.'
p1276
sg4
(lp1277
sg6
(lp1278
sa(dp1279
g2
S'ICHTHYOSIS PREMATURITY SYNDROME is an entity.'
p1280
sg4
(lp1281
sg6
(lp1282
(dp1283
g9
I0
sg10
VC1837610
p1284
sg12
I31
sg13
VICHTHYOSIS PREMATURITY SYNDROME
p1285
sg15
I3
sasa(dp1286
g2
S'AMYOTROPHIC LATERAL SCLEROSIS 8 (disorder) is an entity.'
p1287
sg4
(lp1288
sg6
(lp1289
(dp1290
g9
I0
sg10
VC1837728
p1291
sg12
I31
sg13
VAMYOTROPHIC LATERAL SCLEROSIS 8
p1292
sg15
I4
sasa(dp1293
g2
S'Thickened helices is an entity. \n'
p1294
sg4
(lp1295
sg6
(lp1296
sa(dp1297
g2
S'Prominent eyes is an entity.'
p1298
sg4
(lp1299
sg6
(lp1300
sa(dp1301
g2
S'Loss of facial adipose tissue is an entity.'
p1302
sg4
(lp1303
sg6
(lp1304
sa(dp1305
g2
S'LEGIONNAIRE DISEASE, SUSCEPTIBILITY TO is an entity.'
p1306
sg4
(lp1307
sg6
(lp1308
(dp1309
g9
I0
sg10
VC0023241
p1310
sg12
I19
sg13
VLEGIONNAIRE DISEASE
p1311
sg15
I2
sasa(dp1312
g2
S'LEBER CONGENITAL AMAUROSIS 9 (disorder) is an entity.'
p1313
sg4
(lp1314
sg6
(lp1315
(dp1316
g9
I0
sg10
VC1837873
p1317
sg12
I28
sg13
VLEBER CONGENITAL AMAUROSIS 9
p1318
sg15
I4
sasa(dp1319
g2
S'Generalized limb muscle atrophy is an entity.'
p1320
sg4
(lp1321
sg6
(lp1322
(dp1323
g9
I17
sg10
VC0026846
p1324
sg12
I14
sg13
Vmuscle atrophy
p1325
sg15
I2
sasa(dp1326
g2
S'Mesomelia-synostoses syndrome is an entity.'
p1327
sg4
(lp1328
sg6
(lp1329
(dp1330
g9
I0
sg10
VC1838162
p1331
sg12
I29
sg13
VMesomelia-synostoses syndrome
p1332
sg15
I2
sasa(dp1333
g2
S'SPASTIC PARAPLEGIA 6, AUTOSOMAL DOMINANT (disorder) is an entity.'
p1334
sg4
(lp1335
sg6
(lp1336
(dp1337
g9
I0
sg10
VC1838192
p1338
sg12
I40
sg13
VSPASTIC PARAPLEGIA 6, AUTOSOMAL DOMINANT
p1339
sg15
I5
sasa(dp1340
g2
S'Serpentine fibula polycystic kidney syndrome is an entity.'
p1341
sg4
(lp1342
sg6
(lp1343
(dp1344
g9
I0
sg10
VC1838257
p1345
sg12
I44
sg13
VSerpentine fibula polycystic kidney syndrome
p1346
sg15
I5
sasa(dp1347
g2
S'Osteopetrosis and infantile neuroaxonal dystrophy is an entity.'
p1348
sg4
(lp1349
sg6
(lp1350
(dp1351
g9
I0
sg10
VC1838258
p1352
sg12
I49
sg13
VOsteopetrosis and infantile neuroaxonal dystrophy
p1353
sg15
I5
sasa(dp1354
g2
S'COLORECTAL CANCER, HEREDITARY NONPOLYPOSIS, TYPE 4 is an entity. \n'
p1355
sg4
(lp1356
sg6
(lp1357
(dp1358
g9
I0
sg10
VC1838333
p1359
sg12
I50
sg13
VCOLORECTAL CANCER, HEREDITARY NONPOLYPOSIS, TYPE 4
p1360
sg15
I6
sasa(dp1361
g2
S'Epiphyseal dysplasia, multiple, 2 is an entity.'
p1362
sg4
(lp1363
sg6
(lp1364
(dp1365
g9
I0
sg10
VC1838429
p1366
sg12
I33
sg13
VEpiphyseal dysplasia, multiple, 2
p1367
sg15
I4
sasa(dp1368
g2
S'VENOUS MALFORMATIONS, MULTIPLE CUTANEOUS AND MUCOSAL is an entity.'
p1369
sg4
(lp1370
sg6
(lp1371
(dp1372
g9
I0
sg10
VC1838437
p1373
sg12
I52
sg13
VVENOUS MALFORMATIONS, MULTIPLE CUTANEOUS AND MUCOSAL
p1374
sg15
I6
sasa(dp1375
g2
S'Cerebral Autosomal Recessive Arteriopathy with Subcortical Infarcts and Leukoencephalopathy is an entity.'
p1376
sg4
(lp1377
sg6
(lp1378
(dp1379
g9
I0
sg10
VC1838577
p1380
sg12
I91
sg13
VCerebral Autosomal Recessive Arteriopathy with Subcortical Infarcts and Leukoencephalopathy
p1381
sg15
I9
sasa(dp1382
g2
S'Retinitis Pigmentosa 11 is an entity.'
p1383
sg4
(lp1384
sg6
(lp1385
(dp1386
g9
I0
sg10
VC1838601
p1387
sg12
I23
sg13
VRetinitis Pigmentosa 11
p1388
sg15
I3
sasa(dp1389
g2
S'Radial aplasia is an entity.'
p1390
sg4
(lp1391
sg6
(lp1392
(dp1393
g9
I7
sg10
VC0243065
p1394
sg12
I7
sg13
Vaplasia
p1395
sg15
I1
sasa(dp1396
g2
S'Enlargement of the ankles is an entity.'
p1397
sg4
(lp1398
sg6
(lp1399
(dp1400
g9
I0
sg10
VC2711450
p1401
sg12
I11
sg13
VEnlargement
p1402
sg15
I1
sasa(dp1403
g2
S'Retinitis Pigmentosa 13 is an entity.'
p1404
sg4
(lp1405
sg6
(lp1406
(dp1407
g9
I0
sg10
VC1838702
p1408
sg12
I23
sg13
VRetinitis Pigmentosa 13
p1409
sg15
I3
sasa(dp1410
g2
S'Pancreatic Hypoplasia, Congenital, with Diabetes Mellitus and Congenital Heart Disease is an entity.'
p1411
sg4
(lp1412
sg6
(lp1413
(dp1414
g9
I0
sg10
VC1838780
p1415
sg12
I86
sg13
VPancreatic Hypoplasia, Congenital, with Diabetes Mellitus and Congenital Heart Disease
p1416
sg15
I10
sasa(dp1417
g2
S'Episodic vomiting is an entity.'
p1418
sg4
(lp1419
sg6
(lp1420
(dp1421
g9
I9
sg10
VC0042963
p1422
sg12
I8
sg13
Vvomiting
p1423
sg15
I1
sasa(dp1424
g2
S'Hypomagnesemia, Hypertension, and Hypercholesterolemia, Mitochondrial is an entity. \n'
p1425
sg4
(lp1426
sg6
(lp1427
(dp1428
g9
I0
sg10
VC1839021
p1429
sg12
I69
sg13
VHypomagnesemia, Hypertension, and Hypercholesterolemia, Mitochondrial
p1430
sg15
I5
sasa(dp1431
g2
S'Retinitis Pigmentosa, Y-Linked is an entity.'
p1432
sg4
(lp1433
sg6
(lp1434
(dp1435
g9
I0
sg10
VC1839079
p1436
sg12
I30
sg13
VRetinitis Pigmentosa, Y-Linked
p1437
sg15
I3
sasa(dp1438
g2
S'Broad chest is an entity.'
p1439
sg4
(lp1440
sg6
(lp1441
sa(dp1442
g2
S'PROPERDIN DEFICIENCY, X-LINKED is an entity.'
p1443
sg4
(lp1444
(dp1445
g9
I0
sg55
VP27918
p1446
sg12
I20
sg13
VPROPERDIN DEFICIENCY
p1447
sg15
I2
sasg6
(lp1448
(dp1449
g9
I0
sg10
VC1839454
p1450
sg12
I30
sg13
VPROPERDIN DEFICIENCY, X-LINKED
p1451
sg15
I3
sasa(dp1452
g2
S'OPTIC ATROPHY 2 (disorder) is an entity.'
p1453
sg4
(lp1454
sg6
(lp1455
(dp1456
g9
I0
sg10
VC1839576
p1457
sg12
I15
sg13
VOPTIC ATROPHY 2
p1458
sg15
I3
sasa(dp1459
g2
S'CORPUS CALLOSUM, PARTIAL AGENESIS OF, X-LINKED is an entity.'
p1460
sg4
(lp1461
sg6
(lp1462
(dp1463
g9
I0
sg10
VC1839909
p1464
sg12
I46
sg13
VCORPUS CALLOSUM, PARTIAL AGENESIS OF, X-LINKED
p1465
sg15
I6
sasa(dp1466
g2
S'Elevated 8-dehydrocholesterol is an entity.'
p1467
sg4
(lp1468
sg6
(lp1469
sa(dp1470
g2
S'CORONARY ARTERY DISEASE, SUSCEPTIBILITY TO is an entity.'
p1471
sg4
(lp1472
sg6
(lp1473
(dp1474
g9
I0
sg10
VC1956346
p1475
sg12
I23
sg13
VCORONARY ARTERY DISEASE
p1476
sg15
I3
sasa(dp1477
g2
S'IMMUNE SUPPRESSION is an entity.'
p1478
sg4
(lp1479
sg6
(lp1480
(dp1481
g9
I0
sg10
VC1840264
p1482
sg12
I18
sg13
VIMMUNE SUPPRESSION
p1483
sg15
I2
sasa(dp1484
g2
S'Hypotrichosis Simplex of Scalp is an entity.'
p1485
sg4
(lp1486
sg6
(lp1487
(dp1488
g9
I0
sg10
VC1854310
p1489
sg12
I21
sg13
VHypotrichosis Simplex
p1490
sg15
I2
sasa(dp1491
g2
S'Distal shortening of limbs is an entity. \n'
p1492
sg4
(lp1493
sg6
(lp1494
sa(dp1495
g2
S'Pseudohypoaldosteronism, Type IIb is an entity.'
p1496
sg4
(lp1497
sg6
(lp1498
(dp1499
g9
I0
sg10
VC1840390
p1500
sg12
I33
sg13
VPseudohypoaldosteronism, Type IIb
p1501
sg15
I3
sasa(dp1502
g2
S'Orthostatic Hypotensive Disorder, Streeten Type is an entity.'
p1503
sg4
(lp1504
sg6
(lp1505
(dp1506
g9
I0
sg10
VC1840438
p1507
sg12
I47
sg13
VOrthostatic Hypotensive Disorder, Streeten Type
p1508
sg15
I5
sasa(dp1509
g2
S'Loss of retinal pigment epithelium is an entity.'
p1510
sg4
(lp1511
sg6
(lp1512
sa(dp1513
g2
S'Hidradenitis suppurativa, familial is an entity.'
p1514
sg4
(lp1515
sg6
(lp1516
(dp1517
g9
I0
sg10
VC1840560
p1518
sg12
I34
sg13
VHidradenitis suppurativa, familial
p1519
sg15
I3
sasa(dp1520
g2
S'Progressive Familial Heart Block, Type II is an entity.'
p1521
sg4
(lp1522
sg6
(lp1523
(dp1524
g9
I0
sg10
VC1841658
p1525
sg12
I41
sg13
VProgressive Familial Heart Block, Type II
p1526
sg15
I6
sasa(dp1527
g2
S'MUSCULAR DYSTROPHY, LIMB-GIRDLE, TYPE 1F is an entity.'
p1528
sg4
(lp1529
(dp1530
g9
I0
sg55
VP43034
p1531
sg12
I18
sg13
VMUSCULAR DYSTROPHY
p1532
sg15
I2
sasg6
(lp1533
(dp1534
g9
I0
sg10
VC1842062
p1535
sg12
I40
sg13
VMUSCULAR DYSTROPHY, LIMB-GIRDLE, TYPE 1F
p1536
sg15
I5
sasa(dp1537
g2
S'DEAFNESS, AUTOSOMAL DOMINANT 43 (disorder) is an entity.'
p1538
sg4
(lp1539
sg6
(lp1540
(dp1541
g9
I0
sg10
VC1842108
p1542
sg12
I31
sg13
VDEAFNESS, AUTOSOMAL DOMINANT 43
p1543
sg15
I4
sasa(dp1544
g2
S'BRANCHIOOTIC SYNDROME 3 (disorder) is an entity.'
p1545
sg4
(lp1546
sg6
(lp1547
(dp1548
g9
I0
sg10
VC1842124
p1549
sg12
I23
sg13
VBRANCHIOOTIC SYNDROME 3
p1550
sg15
I3
sasa(dp1551
g2
S'CORONARY ARTERY DISEASE, AUTOSOMAL DOMINANT, 1 is an entity.'
p1552
sg4
(lp1553
sg6
(lp1554
(dp1555
g9
I0
sg10
VC1842247
p1556
sg12
I46
sg13
VCORONARY ARTERY DISEASE, AUTOSOMAL DOMINANT, 1
p1557
sg15
I6
sasa(dp1558
g2
S'DEAFNESS, AUTOSOMAL RECESSIVE 40 (disorder) is an entity. \n'
p1559
sg4
(lp1560
sg6
(lp1561
(dp1562
g9
I0
sg10
VC1842345
p1563
sg12
I32
sg13
VDEAFNESS, AUTOSOMAL RECESSIVE 40
p1564
sg15
I4
sasa(dp1565
g2
S'Central hypotonia is an entity.'
p1566
sg4
(lp1567
sg6
(lp1568
(dp1569
g9
I8
sg10
VC0026827
p1570
sg12
I9
sg13
Vhypotonia
p1571
sg15
I1
sasa(dp1572
g2
S'Abnormal corpus callosum is an entity.'
p1573
sg4
(lp1574
sg6
(lp1575
sa(dp1576
g2
S'Diaphanospondylodysostosis is an entity.'
p1577
sg4
(lp1578
sg6
(lp1579
(dp1580
g9
I0
sg10
VC1842691
p1581
sg12
I26
sg13
VDiaphanospondylodysostosis
p1582
sg15
I1
sasa(dp1583
g2
S'GAUCHER DISEASE, PERINATAL LETHAL is an entity.'
p1584
sg4
(lp1585
sg6
(lp1586
(dp1587
g9
I0
sg10
VC1842704
p1588
sg12
I33
sg13
VGAUCHER DISEASE, PERINATAL LETHAL
p1589
sg15
I4
sasa(dp1590
g2
S'AUTOIMMUNE DISEASE, SUSCEPTIBILITY TO, 1 is an entity.'
p1591
sg4
(lp1592
sg6
(lp1593
(dp1594
g9
I0
sg10
VC0004364
p1595
sg12
I18
sg13
VAUTOIMMUNE DISEASE
p1596
sg15
I2
sasa(dp1597
g2
S'Absent eyelashes is an entity.'
p1598
sg4
(lp1599
sg6
(lp1600
sa(dp1601
g2
S'Hearing loss, progressive sensorineural is an entity.'
p1602
sg4
(lp1603
sg6
(lp1604
(dp1605
g9
I0
sg10
VC0011053
p1606
sg12
I12
sg13
VHearing loss
p1607
sg15
I2
sasa(dp1608
g2
S'DEAFNESS, AUTOSOMAL DOMINANT 52 is an entity.'
p1609
sg4
(lp1610
sg6
(lp1611
(dp1612
g9
I0
sg10
VC1843232
p1613
sg12
I31
sg13
VDEAFNESS, AUTOSOMAL DOMINANT 52
p1614
sg15
I4
sasa(dp1615
g2
S'Palmoplantar keratosis with erythema and scale is an entity.'
p1616
sg4
(lp1617
sg6
(lp1618
(dp1619
g9
I0
sg10
VC0022596
p1620
sg12
I22
sg13
VPalmoplantar keratosis
p1621
sg15
I2
sa(dp1622
g9
I28
sg10
VC0041834
p1623
sg12
I8
sg13
Verythema
p1624
sg15
I1
sasa(dp1625
g2
S'Van Buchem disease type 2 is an entity. \n'
p1626
sg4
(lp1627
sg6
(lp1628
(dp1629
g9
I0
sg10
VC1843323
p1630
sg12
I25
sg13
VVan Buchem disease type 2
p1631
sg15
I5
sasa(dp1632
g2
S'OSTEOPETROSIS, AUTOSOMAL DOMINANT 1 is an entity.'
p1633
sg4
(lp1634
sg6
(lp1635
(dp1636
g9
I0
sg10
VC1843330
p1637
sg12
I35
sg13
VOSTEOPETROSIS, AUTOSOMAL DOMINANT 1
p1638
sg15
I4
sasa(dp1639
g2
S'FRONTOTEMPORAL LOBAR DEGENERATION WITH TDP43 INCLUSIONS, GRN-RELATED is an entity.'
p1640
sg4
(lp1641
(dp1642
g9
I39
sg55
g66
sg12
I5
sg13
VTDP43
p1643
sg15
I1
sasg6
(lp1644
(dp1645
g9
I0
sg10
VC1843792
p1646
sg12
I68
sg13
VFRONTOTEMPORAL LOBAR DEGENERATION WITH TDP43 INCLUSIONS, GRN-RELATED
p1647
sg15
I7
sasa(dp1648
g2
S'SPINOCEREBELLAR ATAXIA WITH EPILEPSY is an entity.'
p1649
sg4
(lp1650
(dp1651
g9
I0
sg55
VP10646
p1652
sg12
I36
sg13
VSPINOCEREBELLAR ATAXIA WITH EPILEPSY
p1653
sg15
I4
sasg6
(lp1654
(dp1655
g9
I0
sg10
VC1843852
p1656
sg12
I36
sg13
VSPINOCEREBELLAR ATAXIA WITH EPILEPSY
p1657
sg15
I4
sasa(dp1658
g2
S'Atrophic and degenerative changes in the spinal cord is an entity.'
p1659
sg4
(lp1660
sg6
(lp1661
(dp1662
g9
I0
sg10
VC0333641
p1663
sg12
I8
sg13
VAtrophic
p1664
sg15
I1
sa(dp1665
g9
I13
sg10
VC0011164
p1666
sg12
I12
sg13
Vdegenerative
p1667
sg15
I1
sa(dp1668
g9
I48
sg10
VC0035334
p1669
sg12
I4
sg13
Vcord
p1670
sg15
I1
sasa(dp1671
g2
S'Recurrent fungal infections is an entity.'
p1672
sg4
(lp1673
sg6
(lp1674
(dp1675
g9
I10
sg10
VC0026946
p1676
sg12
I17
sg13
Vfungal infections
p1677
sg15
I2
sasa(dp1678
g2
S'Partial fusion of carpals is an entity.'
p1679
sg4
(lp1680
sg6
(lp1681
sa(dp1682
g2
S'Absent fingernails is an entity.'
p1683
sg4
(lp1684
sg6
(lp1685
sa(dp1686
g2
S'Exudative Vitreoretinopathy, Familial, X-Linked Recessive is an entity.'
p1687
sg4
(lp1688
sg6
(lp1689
sa(dp1690
g2
S'Axillary pterygia is an entity.'
p1691
sg4
(lp1692
sg6
(lp1693
(dp1694
g9
I9
sg10
VC0033999
p1695
sg12
I8
sg13
Vpterygia
p1696
sg15
I1
sasa(dp1697
g2
S'SPINOCEREBELLAR ATAXIA, X-LINKED 4 is an entity. \n'
p1698
sg4
(lp1699
sg6
(lp1700
(dp1701
g9
I0
sg10
VC1844933
p1702
sg12
I34
sg13
VSPINOCEREBELLAR ATAXIA, X-LINKED 4
p1703
sg15
I4
sasa(dp1704
g2
S'ALBINISM-DEAFNESS SYNDROME is an entity.'
p1705
sg4
(lp1706
sg6
(lp1707
(dp1708
g9
I0
sg10
VC1845068
p1709
sg12
I26
sg13
VALBINISM-DEAFNESS SYNDROME
p1710
sg15
I2
sasa(dp1711
g2
S'Rolandic Epilepsy, Mental Retardation, and Speech Dyspraxia, X-Linked is an entity.'
p1712
sg4
(lp1713
sg6
(lp1714
(dp1715
g9
I0
sg10
VC1845070
p1716
sg12
I69
sg13
VRolandic Epilepsy, Mental Retardation, and Speech Dyspraxia, X-Linked
p1717
sg15
I8
sasa(dp1718
g2
S'RETINITIS PIGMENTOSA 34 (disorder) is an entity.'
p1719
sg4
(lp1720
sg6
(lp1721
(dp1722
g9
I0
sg10
VC1845104
p1723
sg12
I23
sg13
VRETINITIS PIGMENTOSA 34
p1724
sg15
I3
sasa(dp1725
g2
S'PARKINSON DISEASE 12 is an entity.'
p1726
sg4
(lp1727
sg6
(lp1728
(dp1729
g9
I0
sg10
VC1845165
p1730
sg12
I20
sg13
VPARKINSON DISEASE 12
p1731
sg15
I3
sasa(dp1732
g2
S'Nephrogenic Syndrome of Inappropriate Antidiuresis is an entity.'
p1733
sg4
(lp1734
sg6
(lp1735
(dp1736
g9
I0
sg10
VC1845202
p1737
sg12
I50
sg13
VNephrogenic Syndrome of Inappropriate Antidiuresis
p1738
sg15
I5
sasa(dp1739
g2
S'Cubitus Valgus with Mental Retardation and Unusual Facies is an entity.'
p1740
sg4
(lp1741
sg6
(lp1742
(dp1743
g9
I0
sg10
VC1845450
p1744
sg12
I57
sg13
VCubitus Valgus with Mental Retardation and Unusual Facies
p1745
sg15
I8
sasa(dp1746
g2
S'AUTISM, X-LINKED, SUSCEPTIBILITY TO, 2 (finding) is an entity.'
p1747
sg4
(lp1748
sg6
(lp1749
(dp1750
g9
I0
sg10
VC0004352
p1751
sg12
I6
sg13
VAUTISM
p1752
sg15
I1
sasa(dp1753
g2
S'Lymphoid depletion is an entity.'
p1754
sg4
(lp1755
sg6
(lp1756
sa(dp1757
g2
S'FG SYNDROME 2 is an entity.'
p1758
sg4
(lp1759
(dp1760
g9
I0
sg55
VP21333
p1761
sg12
I13
sg13
VFG SYNDROME 2
p1762
sg15
I3
sasg6
(lp1763
(dp1764
g9
I0
sg10
VC1845902
p1765
sg12
I13
sg13
VFG SYNDROME 2
p1766
sg15
I3
sasa(dp1767
g2
S'Lubs X-linked mental retardation syndrome is an entity. \n'
p1768
sg4
(lp1769
sg6
(lp1770
(dp1771
g9
I0
sg10
VC1846058
p1772
sg12
I41
sg13
VLubs X-linked mental retardation syndrome
p1773
sg15
I5
sasa(dp1774
g2
S'Progressive mental retardation is an entity.'
p1775
sg4
(lp1776
sg6
(lp1777
(dp1778
g9
I12
sg10
VC0025362
p1779
sg12
I18
sg13
Vmental retardation
p1780
sg15
I2
sasa(dp1781
g2
S'MENTAL RETARDATION, X-LINKED, SYNDROMIC 10 is an entity.'
p1782
sg4
(lp1783
sg6
(lp1784
(dp1785
g9
I0
sg10
VC1846168
p1786
sg12
I42
sg13
VMENTAL RETARDATION, X-LINKED, SYNDROMIC 10
p1787
sg15
I5
sasa(dp1788
g2
S'Mental Retardation, X-Linked 58 is an entity.'
p1789
sg4
(lp1790
sg6
(lp1791
(dp1792
g9
I0
sg10
VC1846174
p1793
sg12
I31
sg13
VMental Retardation, X-Linked 58
p1794
sg15
I4
sasa(dp1795
g2
S'Externally rotated hips is an entity.'
p1796
sg4
(lp1797
sg6
(lp1798
sa(dp1799
g2
S'Renal potassium wasting is an entity.'
p1800
sg4
(lp1801
sg6
(lp1802
(dp1803
g9
I16
sg10
VC0235394
p1804
sg12
I7
sg13
Vwasting
p1805
sg15
I1
sasa(dp1806
g2
S'Thick upper lip vermilion is an entity.'
p1807
sg4
(lp1808
sg6
(lp1809
(dp1810
g9
I12
sg10
VC0264511
p1811
sg12
I3
sg13
Vlip
p1812
sg15
I1
sasa(dp1813
g2
S'Globe retraction and deviation on adduction is an entity.'
p1814
sg4
(lp1815
sg6
(lp1816
sa(dp1817
g2
S'Defective B cell activation is an entity.'
p1818
sg4
(lp1819
sg6
(lp1820
sa(dp1821
g2
S'EPILEPSY, PARTIAL, WITH PERICENTRAL SPIKES is an entity.'
p1822
sg4
(lp1823
sg6
(lp1824
(dp1825
g9
I0
sg10
VC1846609
p1826
sg12
I42
sg13
VEPILEPSY, PARTIAL, WITH PERICENTRAL SPIKES
p1827
sg15
I5
sasa(dp1828
g2
S'SPINOCEREBELLAR ATAXIA 17 is an entity. \n'
p1829
sg4
(lp1830
sg6
(lp1831
(dp1832
g9
I0
sg10
VC1846707
p1833
sg12
I25
sg13
VSPINOCEREBELLAR ATAXIA 17
p1834
sg15
I3
sasa(dp1835
g2
S'Aortic Aneurysm, Familial Thoracic 2 is an entity.'
p1836
sg4
(lp1837
sg6
(lp1838
(dp1839
g9
I0
sg10
VC1846837
p1840
sg12
I36
sg13
VAortic Aneurysm, Familial Thoracic 2
p1841
sg15
I5
sasa(dp1842
g2
S'Favorable response to levodopa is an entity.'
p1843
sg4
(lp1844
sg6
(lp1845
sa(dp1846
g2
S'Compensatory chin elevation is an entity.'
p1847
sg4
(lp1848
sg6
(lp1849
sa(dp1850
g2
S'Senior-Loken Syndrome 3 is an entity.'
p1851
sg4
(lp1852
sg6
(lp1853
(dp1854
g9
I0
sg10
VC1846980
p1855
sg12
I23
sg13
VSenior-Loken Syndrome 3
p1856
sg15
I3
sasa(dp1857
g2
S'Digital Arthropathy-Brachydactyly, Familial is an entity.'
p1858
sg4
(lp1859
sg6
(lp1860
(dp1861
g9
I0
sg10
VC1847406
p1862
sg12
I43
sg13
VDigital Arthropathy-Brachydactyly, Familial
p1863
sg15
I3
sasa(dp1864
g2
S'FRIEDREICH ATAXIA WITH RETAINED REFLEXES is an entity.'
p1865
sg4
(lp1866
sg6
(lp1867
(dp1868
g9
I0
sg10
VC1847416
p1869
sg12
I40
sg13
VFRIEDREICH ATAXIA WITH RETAINED REFLEXES
p1870
sg15
I5
sasa(dp1871
g2
S'Postnatal microcephaly is an entity.'
p1872
sg4
(lp1873
sg6
(lp1874
(dp1875
g9
I10
sg10
VC0025958
p1876
sg12
I12
sg13
Vmicrocephaly
p1877
sg15
I1
sasa(dp1878
g2
S'ADIPONECTIN, SERUM LEVEL OF, QUANTITATIVE TRAIT LOCUS 3 is an entity.'
p1879
sg4
(lp1880
sg6
(lp1881
(dp1882
g9
I0
sg10
VC1847529
p1883
sg12
I55
sg13
VADIPONECTIN, SERUM LEVEL OF, QUANTITATIVE TRAIT LOCUS 3
p1884
sg15
I8
sasa(dp1885
g2
S'CILIARY DYSKINESIA, PRIMARY, 2 (disorder) is an entity.'
p1886
sg4
(lp1887
sg6
(lp1888
(dp1889
g9
I0
sg10
VC1847554
p1890
sg12
I30
sg13
VCILIARY DYSKINESIA, PRIMARY, 2
p1891
sg15
I4
sasa(dp1892
g2
S'Deficit in phonologic short-term memory is an entity. \n'
p1893
sg4
(lp1894
sg6
(lp1895
(dp1896
g9
I0
sg10
VC0162429
p1897
sg12
I7
sg13
VDeficit
p1898
sg15
I1
sasa(dp1899
g2
S'INFLAMMATORY BOWEL DISEASE 8 is an entity.'
p1900
sg4
(lp1901
sg6
(lp1902
(dp1903
g9
I0
sg10
VC1847719
p1904
sg12
I28
sg13
VINFLAMMATORY BOWEL DISEASE 8
p1905
sg15
I4
sasa(dp1906
g2
S'Glycine N-Methyltransferase Deficiency is an entity.'
p1907
sg4
(lp1908
(dp1909
g9
I0
sg55
g66
sg12
I27
sg13
VGlycine N-Methyltransferase
p1910
sg15
I2
sasg6
(lp1911
(dp1912
g9
I0
sg10
VC1847720
p1913
sg12
I38
sg13
VGlycine N-Methyltransferase Deficiency
p1914
sg15
I3
sasa(dp1915
g2
S'CHARCOT-MARIE-TOOTH DISEASE, AXONAL, TYPE 2F is an entity.'
p1916
sg4
(lp1917
sg6
(lp1918
(dp1919
g9
I0
sg10
VC1847823
p1920
sg12
I44
sg13
VCHARCOT-MARIE-TOOTH DISEASE, AXONAL, TYPE 2F
p1921
sg15
I5
sasa(dp1922
g2
S'Homozygous 11p15-p14 Deletion Syndrome is an entity.'
p1923
sg4
(lp1924
(dp1925
g9
I11
sg55
VP03971
p1926
sg12
I9
sg13
V11p15-p14
p1927
sg15
I1
sasg6
(lp1928
(dp1929
g9
I0
sg10
VC1847866
p1930
sg12
I38
sg13
VHomozygous 11p15-p14 Deletion Syndrome
p1931
sg15
I4
sasa(dp1932
g2
S'Onion bulb formation is an entity.'
p1933
sg4
(lp1934
sg6
(lp1935
sa(dp1936
g2
S'DEAFNESS, AUTOSOMAL DOMINANT 30 (disorder) is an entity.'
p1937
sg4
(lp1938
sg6
(lp1939
(dp1940
g9
I0
sg10
VC1847972
p1941
sg12
I31
sg13
VDEAFNESS, AUTOSOMAL DOMINANT 30
p1942
sg15
I4
sasa(dp1943
g2
S'MIGRAINE WITH OR WITHOUT AURA, SUSCEPTIBILITY TO, 2 is an entity.'
p1944
sg4
(lp1945
(dp1946
g9
I0
sg55
g66
sg12
I48
sg13
VMIGRAINE WITH OR WITHOUT AURA, SUSCEPTIBILITY TO
p1947
sg15
I7
sasg6
(lp1948
(dp1949
g9
I0
sg10
VC0149931
p1950
sg12
I8
sg13
VMIGRAINE
p1951
sg15
I1
sasa(dp1952
g2
S'COGNITIVE FUNCTION 1, SOCIAL is an entity.'
p1953
sg4
(lp1954
sg6
(lp1955
(dp1956
g9
I0
sg10
VC1848140
p1957
sg12
I28
sg13
VCOGNITIVE FUNCTION 1, SOCIAL
p1958
sg15
I4
sasa(dp1959
g2
S'NIGHT BLINDNESS, CONGENITAL STATIONARY, TYPE 2A is an entity.'
p1960
sg4
(lp1961
sg6
(lp1962
(dp1963
g9
I0
sg10
VC1848172
p1964
sg12
I47
sg13
VNIGHT BLINDNESS, CONGENITAL STATIONARY, TYPE 2A
p1965
sg15
I6
sasa(dp1966
g2
S'Dent disease 1 is an entity. \n'
p1967
sg4
(lp1968
sg6
(lp1969
(dp1970
g9
I0
sg10
VC1848336
p1971
sg12
I14
sg13
VDent disease 1
p1972
sg15
I3
sasa(dp1973
g2
S'Posterior pharyngeal cleft is an entity.'
p1974
sg4
(lp1975
sg6
(lp1976
sa(dp1977
g2
S'Short fourth metatarsals is an entity.'
p1978
sg4
(lp1979
sg6
(lp1980
sa(dp1981
g2
S'Large, floppy ears is an entity.'
p1982
sg4
(lp1983
sg6
(lp1984
(dp1985
g9
I7
sg10
VC0857516
p1986
sg12
I6
sg13
Vfloppy
p1987
sg15
I1
sasa(dp1988
g2
S'4-hydroxyphenylacetic aciduria is an entity.'
p1989
sg4
(lp1990
sg6
(lp1991
(dp1992
g9
I22
sg10
VC0278026
p1993
sg12
I8
sg13
Vaciduria
p1994
sg15
I1
sasa(dp1995
g2
S'Fused vertebrae is an entity.'
p1996
sg4
(lp1997
sg6
(lp1998
sa(dp1999
g2
S'Spastic paraplegia 15, autosomal recessive is an entity.'
p2000
sg4
(lp2001
sg6
(lp2002
(dp2003
g9
I0
sg10
VC1849128
p2004
sg12
I42
sg13
VSpastic paraplegia 15, autosomal recessive
p2005
sg15
I5
sasa(dp2006
g2
S'Loss of Purkinje cells in the cerebellar vermis is an entity.'
p2007
sg4
(lp2008
sg6
(lp2009
sa(dp2010
g2
S'Spastic Ataxia is an entity.'
p2011
sg4
(lp2012
sg6
(lp2013
(dp2014
g9
I0
sg10
VC1849156
p2015
sg12
I14
sg13
VSpastic Ataxia
p2016
sg15
I2
sasa(dp2017
g2
S'Superficial corneal opacities is an entity.'
p2018
sg4
(lp2019
sg6
(lp2020
(dp2021
g9
I20
sg10
VC1265876
p2022
sg12
I9
sg13
Vopacities
p2023
sg15
I1
sasa(dp2024
g2
S'CLEFT CHIN is an entity. \n'
p2025
sg4
(lp2026
sg6
(lp2027
sa(dp2028
g2
S'Hypoplastic/aplastic pubic bones is an entity.'
p2029
sg4
(lp2030
sg6
(lp2031
sa(dp2032
g2
S'Sandhoff Disease, Infantile Type is an entity.'
p2033
sg4
(lp2034
sg6
(lp2035
(dp2036
g9
I0
sg10
VC1849322
p2037
sg12
I32
sg13
VSandhoff Disease, Infantile Type
p2038
sg15
I4
sasa(dp2039
g2
S'Cleft lower alveolar ridge is an entity.'
p2040
sg4
(lp2041
sg6
(lp2042
sa(dp2043
g2
S'Ridged fingernails is an entity.'
p2044
sg4
(lp2045
sg6
(lp2046
sa(dp2047
g2
S'Increased serum pyruvate is an entity.'
p2048
sg4
(lp2049
sg6
(lp2050
sa(dp2051
g2
S'LYMPHANGIECTASIA, PULMONARY, CONGENITAL is an entity.'
p2052
sg4
(lp2053
sg6
(lp2054
(dp2055
g9
I0
sg10
VC1849554
p2056
sg12
I39
sg13
VLYMPHANGIECTASIA, PULMONARY, CONGENITAL
p2057
sg15
I3
sasa(dp2058
g2
S'Absence of labia majora is an entity.'
p2059
sg4
(lp2060
sg6
(lp2061
sa(dp2062
g2
S'Anterior clefting of vertebral bodies is an entity.'
p2063
sg4
(lp2064
sg6
(lp2065
sa(dp2066
g2
S'Numerous nevi is an entity.'
p2067
sg4
(lp2068
sg6
(lp2069
(dp2070
g9
I9
sg10
VC0027962
p2071
sg12
I4
sg13
Vnevi
p2072
sg15
I1
sasa(dp2073
g2
S'Loss of corticomedullary differentiation is an entity. \n'
p2074
sg4
(lp2075
sg6
(lp2076
sa(dp2077
g2
S'Phenylpyruvic acidemia is an entity.'
p2078
sg4
(lp2079
sg6
(lp2080
(dp2081
g9
I14
sg10
VC0268030
p2082
sg12
I8
sg13
Vacidemia
p2083
sg15
I1
sasa(dp2084
g2
S'Agenesis of maxillary lateral incisor is an entity.'
p2085
sg4
(lp2086
sg6
(lp2087
(dp2088
g9
I0
sg10
VC0332907
p2089
sg12
I8
sg13
VAgenesis
p2090
sg15
I1
sasa(dp2091
g2
S'Prominent protruding coccyx is an entity.'
p2092
sg4
(lp2093
sg6
(lp2094
(dp2095
g9
I10
sg10
VC0333056
p2096
sg12
I10
sg13
Vprotruding
p2097
sg15
I1
sasa(dp2098
g2
S'Bilateral fifth finger clinodactyly is an entity.'
p2099
sg4
(lp2100
sg6
(lp2101
(dp2102
g9
I23
sg10
VC0265610
p2103
sg12
I12
sg13
Vclinodactyly
p2104
sg15
I1
sasa(dp2105
g2
S'Bowing of limbs due to multiple fractures is an entity.'
p2106
sg4
(lp2107
sg6
(lp2108
sa(dp2109
g2
S'Large pinnae is an entity.'
p2110
sg4
(lp2111
sg6
(lp2112
sa(dp2113
g2
S'Posterior scalloping of vertebral bodies is an entity.'
p2114
sg4
(lp2115
sg6
(lp2116
sa(dp2117
g2
S'Anterior bowing of long bones is an entity.'
p2118
sg4
(lp2119
sg6
(lp2120
sa(dp2121
g2
S'Irregular femoral epiphyses is an entity.'
p2122
sg4
(lp2123
sg6
(lp2124
sa(dp2125
g2
S'MUSCULAR DYSTROPHY, LIMB-GIRDLE, TYPE 2B is an entity. \n'
p2126
sg4
(lp2127
(dp2128
g9
I0
sg55
VP43034
p2129
sg12
I18
sg13
VMUSCULAR DYSTROPHY
p2130
sg15
I2
sasg6
(lp2131
(dp2132
g9
I0
sg10
VC1850889
p2133
sg12
I40
sg13
VMUSCULAR DYSTROPHY, LIMB-GIRDLE, TYPE 2B
p2134
sg15
I5
sasa(dp2135
g2
S'Anterior basal encephalocele is an entity.'
p2136
sg4
(lp2137
sg6
(lp2138
(dp2139
g9
I0
sg10
VC1850961
p2140
sg12
I28
sg13
VAnterior basal encephalocele
p2141
sg15
I3
sasa(dp2142
g2
S'Median cleft palate is an entity.'
p2143
sg4
(lp2144
sg6
(lp2145
(dp2146
g9
I7
sg10
VC0008925
p2147
sg12
I12
sg13
Vcleft palate
p2148
sg15
I2
sasa(dp2149
g2
S'Hypertrichosis Terminalis, Generalized, with or without Gingival Hyperplasia is an entity.'
p2150
sg4
(lp2151
sg6
(lp2152
(dp2153
g9
I0
sg10
VC1851120
p2154
sg12
I76
sg13
VHypertrichosis Terminalis, Generalized, with or without Gingival Hyperplasia
p2155
sg15
I8
sasa(dp2156
g2
S'Exudative vitreoretinopathy 1 is an entity.'
p2157
sg4
(lp2158
sg6
(lp2159
(dp2160
g9
I0
sg10
VC1851402
p2161
sg12
I29
sg13
VExudative vitreoretinopathy 1
p2162
sg15
I3
sasa(dp2163
g2
S'Scapular exostoses is an entity.'
p2164
sg4
(lp2165
sg6
(lp2166
(dp2167
g9
I9
sg10
VC0015302
p2168
sg12
I9
sg13
Vexostoses
p2169
sg15
I1
sasa(dp2170
g2
S'ATHEROSCLEROSIS, SUSCEPTIBILITY TO is an entity.'
p2171
sg4
(lp2172
sg6
(lp2173
(dp2174
g9
I0
sg10
VC0004153
p2175
sg12
I15
sg13
VATHEROSCLEROSIS
p2176
sg15
I1
sasa(dp2177
g2
S'LYMPHOPROLIFERATIVE DISORDERS, SUSCEPTIBILITY TO is an entity.'
p2178
sg4
(lp2179
sg6
(lp2180
(dp2181
g9
I0
sg10
VC0024314
p2182
sg12
I29
sg13
VLYMPHOPROLIFERATIVE DISORDERS
p2183
sg15
I2
sasa(dp2184
g2
S'Epiphyseal Dysplasia, Multiple, with Myopia and Conductive Deafness is an entity.'
p2185
sg4
(lp2186
sg6
(lp2187
(dp2188
g9
I0
sg10
VC1851536
p2189
sg12
I67
sg13
VEpiphyseal Dysplasia, Multiple, with Myopia and Conductive Deafness
p2190
sg15
I8
sasa(dp2191
g2
S"'Mottled' pigmentation of the trunk and proximal extremities is an entity."
p2192
sg4
(lp2193
sg6
(lp2194
sa(dp2195
g2
S'ADENOCARCINOMA OF LUNG, RESPONSE TO TYROSINE KINASE INHIBITOR IN, SOMATIC is an entity. \n'
p2196
sg4
(lp2197
(dp2198
g9
I0
sg55
g66
sg12
I14
sg13
VADENOCARCINOMA
p2199
sg15
I1
sasg6
(lp2200
(dp2201
g9
I0
sg10
VC0152013
p2202
sg12
I22
sg13
VADENOCARCINOMA OF LUNG
p2203
sg15
I3
sasa(dp2204
g2
S'LATERAL MENINGOCELE SYNDROME is an entity.'
p2205
sg4
(lp2206
sg6
(lp2207
(dp2208
g9
I0
sg10
VC1851710
p2209
sg12
I28
sg13
VLATERAL MENINGOCELE SYNDROME
p2210
sg15
I3
sasa(dp2211
g2
S'Dural ectasia is an entity.'
p2212
sg4
(lp2213
sg6
(lp2214
(dp2215
g9
I6
sg10
VC0012359
p2216
sg12
I7
sg13
Vectasia
p2217
sg15
I1
sasa(dp2218
g2
S'Pancreatic hyperplasia is an entity.'
p2219
sg4
(lp2220
sg6
(lp2221
(dp2222
g9
I11
sg10
VC0020507
p2223
sg12
I11
sg13
Vhyperplasia
p2224
sg15
I1
sasa(dp2225
g2
S'Small, conical teeth is an entity.'
p2226
sg4
(lp2227
sg6
(lp2228
(dp2229
g9
I7
sg10
VC0266037
p2230
sg12
I13
sg13
Vconical teeth
p2231
sg15
I2
sasa(dp2232
g2
S'Lewy Body Variant of Alzheimer Disease is an entity.'
p2233
sg4
(lp2234
sg6
(lp2235
(dp2236
g9
I0
sg10
VC1851958
p2237
sg12
I38
sg13
VLewy Body Variant of Alzheimer Disease
p2238
sg15
I6
sasa(dp2239
g2
S'Dorsal subluxation of ulna is an entity.'
p2240
sg4
(lp2241
sg6
(lp2242
sa(dp2243
g2
S'Failure of Tooth Eruption, Primary is an entity.'
p2244
sg4
(lp2245
sg6
(lp2246
(dp2247
g9
I0
sg10
VC1852222
p2248
sg12
I34
sg13
VFailure of Tooth Eruption, Primary
p2249
sg15
I5
sasa(dp2250
g2
S'Nonarteritic anterior ischemic optic neuropathy (NAION) is an entity.'
p2251
sg4
(lp2252
sg6
(lp2253
(dp2254
g9
I49
sg10
VC1852242
p2255
sg12
I5
sg13
VNAION
p2256
sg15
I1
sa(dp2257
g9
I0
sg10
VC1852242
p2258
sg12
I47
sg13
VNonarteritic anterior ischemic optic neuropathy
p2259
sg15
I5
sasa(dp2260
g2
S'Auditory neuropathy is an entity.'
p2261
sg4
(lp2262
sg6
(lp2263
(dp2264
g9
I0
sg10
VC1852271
p2265
sg12
I19
sg13
VAuditory neuropathy
p2266
sg15
I2
sasa(dp2267
g2
S'Craniofacial deafness hand syndrome is an entity. \n'
p2268
sg4
(lp2269
sg6
(lp2270
(dp2271
g9
I0
sg10
VC1852510
p2272
sg12
I35
sg13
VCraniofacial deafness hand syndrome
p2273
sg15
I4
sasa(dp2274
g2
S'NICOTINE, POOR METABOLISM OF is an entity.'
p2275
sg4
(lp2276
sg6
(lp2277
sa(dp2278
g2
S'Absent retinal pigment epithelium is an entity.'
p2279
sg4
(lp2280
sg6
(lp2281
sa(dp2282
g2
S'Noonan Syndrome 4 is an entity.'
p2283
sg4
(lp2284
sg6
(lp2285
(dp2286
g9
I0
sg10
VC1853120
p2287
sg12
I17
sg13
VNoonan Syndrome 4
p2288
sg15
I3
sasa(dp2289
g2
S'Nemaline Myopathy 7 is an entity.'
p2290
sg4
(lp2291
sg6
(lp2292
(dp2293
g9
I0
sg10
VC1853154
p2294
sg12
I19
sg13
VNemaline Myopathy 7
p2295
sg15
I3
sasa(dp2296
g2
S'Conotruncal heart defects is an entity.'
p2297
sg4
(lp2298
sg6
(lp2299
(dp2300
g9
I12
sg10
VC0018798
p2301
sg12
I13
sg13
Vheart defects
p2302
sg15
I2
sasa(dp2303
g2
S'Flat face is an entity.'
p2304
sg4
(lp2305
sg6
(lp2306
(dp2307
g9
I5
sg10
VC3160739
p2308
sg12
I4
sg13
Vface
p2309
sg15
I1
sasa(dp2310
g2
S'Deafness, Autosomal Recessive 28 is an entity.'
p2311
sg4
(lp2312
sg6
(lp2313
(dp2314
g9
I0
sg10
VC1853276
p2315
sg12
I32
sg13
VDeafness, Autosomal Recessive 28
p2316
sg15
I4
sasa(dp2317
g2
S'Enlarged cisterna magna is an entity.'
p2318
sg4
(lp2319
sg6
(lp2320
sa(dp2321
g2
S'Pear-shaped nose is an entity.'
p2322
sg4
(lp2323
sg6
(lp2324
sa(dp2325
g2
S'Bushy eyebrows is an entity. \n'
p2326
sg4
(lp2327
sg6
(lp2328
sa(dp2329
g2
S'Acropectoral syndrome is an entity.'
p2330
sg4
(lp2331
sg6
(lp2332
(dp2333
g9
I0
sg10
VC1853812
p2334
sg12
I21
sg13
VAcropectoral syndrome
p2335
sg15
I2
sasa(dp2336
g2
S'Generalized hypotonia due to defect at the neuromuscular junction is an entity.'
p2337
sg4
(lp2338
sg6
(lp2339
(dp2340
g9
I12
sg10
VC1837123
p2341
sg12
I53
sg13
Vhypotonia due to defect at the neuromuscular junction
p2342
sg15
I8
sasa(dp2343
g2
S'Microphthalmia, Isolated, with Coloboma 2 is an entity.'
p2344
sg4
(lp2345
sg6
(lp2346
(dp2347
g9
I0
sg10
VC1854018
p2348
sg12
I41
sg13
VMicrophthalmia, Isolated, with Coloboma 2
p2349
sg15
I5
sasa(dp2350
g2
S'Prominent nasal bridge is an entity.'
p2351
sg4
(lp2352
sg6
(lp2353
sa(dp2354
g2
S'Motor delay is an entity.'
p2355
sg4
(lp2356
sg6
(lp2357
sa(dp2358
g2
S'OPTIC ATROPHY 4 (disorder) is an entity.'
p2359
sg4
(lp2360
sg6
(lp2361
(dp2362
g9
I0
sg10
VC1854430
p2363
sg12
I15
sg13
VOPTIC ATROPHY 4
p2364
sg15
I3
sasa(dp2365
g2
S'Neuropathy, hereditary motor and sensory, Russe type is an entity.'
p2366
sg4
(lp2367
sg6
(lp2368
(dp2369
g9
I0
sg10
VC1854449
p2370
sg12
I52
sg13
VNeuropathy, hereditary motor and sensory, Russe type
p2371
sg15
I7
sasa(dp2372
g2
S'Distal motor neuropathy is an entity.'
p2373
sg4
(lp2374
sg6
(lp2375
(dp2376
g9
I7
sg10
VC0235025
p2377
sg12
I16
sg13
Vmotor neuropathy
p2378
sg15
I2
sasa(dp2379
g2
S'Hypertension, Early-Onset, Autosomal Dominant, with Severe Exacerbation in Pregnancy is an entity.'
p2380
sg4
(lp2381
sg6
(lp2382
(dp2383
g9
I0
sg10
VC1854631
p2384
sg12
I84
sg13
VHypertension, Early-Onset, Autosomal Dominant, with Severe Exacerbation in Pregnancy
p2385
sg15
I9
sasa(dp2386
g2
S'Pointed proximal metacarpals is an entity. \n'
p2387
sg4
(lp2388
sg6
(lp2389
sa(dp2390
g2
S'Infantile cardiomyopathy is an entity.'
p2391
sg4
(lp2392
sg6
(lp2393
(dp2394
g9
I0
sg10
VC1854776
p2395
sg12
I24
sg13
VInfantile cardiomyopathy
p2396
sg15
I2
sasa(dp2397
g2
S'Pointed proximal second through fifth metacarpals is an entity.'
p2398
sg4
(lp2399
sg6
(lp2400
sa(dp2401
g2
S'Shallow acetabular fossae is an entity.'
p2402
sg4
(lp2403
sg6
(lp2404
sa(dp2405
g2
S'Leukoencephalopathy, progressive is an entity.'
p2406
sg4
(lp2407
sg6
(lp2408
(dp2409
g9
I0
sg10
VC0270612
p2410
sg12
I19
sg13
VLeukoencephalopathy
p2411
sg15
I1
sasa(dp2412
g2
S'Large dysplastic ears is an entity.'
p2413
sg4
(lp2414
sg6
(lp2415
(dp2416
g9
I6
sg10
VC0334044
p2417
sg12
I10
sg13
Vdysplastic
p2418
sg15
I1
sasa(dp2419
g2
S'Short proximal phalanges of thumb is an entity.'
p2420
sg4
(lp2421
sg6
(lp2422
sa(dp2423
g2
S'Methylmalonic aciduria is an entity.'
p2424
sg4
(lp2425
sg6
(lp2426
(dp2427
g9
I0
sg10
VC0268583
p2428
sg12
I22
sg13
VMethylmalonic aciduria
p2429
sg15
I2
sasa(dp2430
g2
S'Spondylometaphyseal dysplasia, Sedaghatian type is an entity.'
p2431
sg4
(lp2432
sg6
(lp2433
(dp2434
g9
I0
sg10
VC1855229
p2435
sg12
I47
sg13
VSpondylometaphyseal dysplasia, Sedaghatian type
p2436
sg15
I4
sasa(dp2437
g2
S'Ter Haar syndrome is an entity.'
p2438
sg4
(lp2439
sg6
(lp2440
(dp2441
g9
I0
sg10
VC1855305
p2442
sg12
I17
sg13
VTer Haar syndrome
p2443
sg15
I3
sasa(dp2444
g2
S'Bowing of the long bones is an entity. \n'
p2445
sg4
(lp2446
sg6
(lp2447
sa(dp2448
g2
S'Inferior vermis hypoplasia is an entity.'
p2449
sg4
(lp2450
sg6
(lp2451
(dp2452
g9
I16
sg10
VC0243069
p2453
sg12
I10
sg13
Vhypoplasia
p2454
sg15
I1
sasa(dp2455
g2
S'Jerky head movements is an entity.'
p2456
sg4
(lp2457
sg6
(lp2458
sa(dp2459
g2
S'Exercise-induced muscle stiffness is an entity.'
p2460
sg4
(lp2461
sg6
(lp2462
(dp2463
g9
I17
sg10
VC0221170
p2464
sg12
I16
sg13
Vmuscle stiffness
p2465
sg15
I2
sasa(dp2466
g2
S'Ovoid vertebral bodies is an entity.'
p2467
sg4
(lp2468
sg6
(lp2469
sa(dp2470
g2
S'Extinguished electroretinogram is an entity.'
p2471
sg4
(lp2472
sg6
(lp2473
sa(dp2474
g2
S'Neuronal intestinal pseudoobstruction is an entity.'
p2475
sg4
(lp2476
sg6
(lp2477
(dp2478
g9
I0
sg10
VC1855733
p2479
sg12
I37
sg13
VNeuronal intestinal pseudoobstruction
p2480
sg15
I3
sasa(dp2481
g2
S'Severe intrauterine growth retardation is an entity.'
p2482
sg4
(lp2483
sg6
(lp2484
(dp2485
g9
I7
sg10
VC0015934
p2486
sg12
I31
sg13
Vintrauterine growth retardation
p2487
sg15
I3
sasa(dp2488
g2
S'Congenital hypertrophy of left ventricle is an entity.'
p2489
sg4
(lp2490
sg6
(lp2491
(dp2492
g9
I0
sg10
VC0332887
p2493
sg12
I22
sg13
VCongenital hypertrophy
p2494
sg15
I2
sasa(dp2495
g2
S'Hydroxylysinuria is an entity.'
p2496
sg4
(lp2497
sg6
(lp2498
(dp2499
g9
I0
sg10
VC1855986
p2500
sg12
I16
sg13
VHydroxylysinuria
p2501
sg15
I1
sasa(dp2502
g2
S'Homocystinuria-Megaloblastic Anemia due to Defect in Cobalamin Metabolism, CblE Complementation Type is an entity. \n'
p2503
sg4
(lp2504
(dp2505
g9
I75
sg55
g66
sg12
I4
sg13
VCblE
p2506
sg15
I1
sasg6
(lp2507
(dp2508
g9
I0
sg10
VC1856057
p2509
sg12
I100
sg13
VHomocystinuria-Megaloblastic Anemia due to Defect in Cobalamin Metabolism, CblE Complementation Type
p2510
sg15
I11
sasa(dp2511
g2
S'Fleshy upturned lobules is an entity.'
p2512
sg4
(lp2513
sg6
(lp2514
sa(dp2515
g2
S'Hypertrophied alveolar ridge is an entity.'
p2516
sg4
(lp2517
sg6
(lp2518
(dp2519
g9
I0
sg10
VC0020564
p2520
sg12
I13
sg13
VHypertrophied
p2521
sg15
I1
sasa(dp2522
g2
S'Thin calvarium is an entity.'
p2523
sg4
(lp2524
sg6
(lp2525
sa(dp2526
g2
S'Granulomatous Disease, Chronic, Autosomal Recessive, Cytochrome B-Positive, Type II is an entity.'
p2527
sg4
(lp2528
sg6
(lp2529
(dp2530
g9
I0
sg10
VC1856245
p2531
sg12
I83
sg13
VGranulomatous Disease, Chronic, Autosomal Recessive, Cytochrome B-Positive, Type II
p2532
sg15
I9
sasa(dp2533
g2
S'Hypoketotic hypoglycemia is an entity.'
p2534
sg4
(lp2535
sg6
(lp2536
(dp2537
g9
I12
sg10
VC0020615
p2538
sg12
I12
sg13
Vhypoglycemia
p2539
sg15
I1
sasa(dp2540
g2
S'Absent/hypoplastic paranasal sinuses is an entity.'
p2541
sg4
(lp2542
sg6
(lp2543
sa(dp2544
g2
S'Cervical platyspondyly is an entity.'
p2545
sg4
(lp2546
sg6
(lp2547
sa(dp2548
g2
S'Abnormal helices is an entity.'
p2549
sg4
(lp2550
sg6
(lp2551
sa(dp2552
g2
S'Impaired proprioception is an entity.'
p2553
sg4
(lp2554
sg6
(lp2555
(dp2556
g9
I0
sg10
VC0684336
p2557
sg12
I8
sg13
VImpaired
p2558
sg15
I1
sasa(dp2559
g2
S'Malaligned carpal bone is an entity. \n'
p2560
sg4
(lp2561
sg6
(lp2562
sa(dp2563
g2
S'Posterior vertebral hypoplasia is an entity.'
p2564
sg4
(lp2565
sg6
(lp2566
(dp2567
g9
I10
sg10
VC0345394
p2568
sg12
I20
sg13
Vvertebral hypoplasia
p2569
sg15
I2
sasa(dp2570
g2
S'Reduced pancreatic beta cells is an entity.'
p2571
sg4
(lp2572
sg6
(lp2573
sa(dp2574
g2
S'Small femoral heads is an entity.'
p2575
sg4
(lp2576
sg6
(lp2577
sa(dp2578
g2
S'Palmar hyperhidrosis is an entity.'
p2579
sg4
(lp2580
sg6
(lp2581
sa(dp2582
g2
S'Absent sternal ossification is an entity.'
p2583
sg4
(lp2584
sg6
(lp2585
sa(dp2586
g2
S'Dyssegmental dysplasia is an entity.'
p2587
sg4
(lp2588
sg6
(lp2589
(dp2590
g9
I13
sg10
VC0334044
p2591
sg12
I9
sg13
Vdysplasia
p2592
sg15
I1
sasa(dp2593
g2
S'Hypoplastic mandible condyle is an entity.'
p2594
sg4
(lp2595
sg6
(lp2596
sa(dp2597
g2
S'Enlargement of the costochondral junction is an entity.'
p2598
sg4
(lp2599
sg6
(lp2600
(dp2601
g9
I0
sg10
VC2711450
p2602
sg12
I11
sg13
VEnlargement
p2603
sg15
I1
sasa(dp2604
g2
S'Irregular lacy iliac crest is an entity.'
p2605
sg4
(lp2606
sg6
(lp2607
(dp2608
g9
I21
sg10
VC0206138
p2609
sg12
I5
sg13
Vcrest
p2610
sg15
I1
sasa(dp2611
g2
S'Diaphragmatic Hernia 2 is an entity. \n'
p2612
sg4
(lp2613
sg6
(lp2614
(dp2615
g9
I0
sg10
VC1857284
p2616
sg12
I22
sg13
VDiaphragmatic Hernia 2
p2617
sg15
I3
sasa(dp2618
g2
S'Acth-Independent Macronodular Adrenal Hyperplasia is an entity.'
p2619
sg4
(lp2620
sg6
(lp2621
(dp2622
g9
I0
sg10
VC1857451
p2623
sg12
I49
sg13
VActh-Independent Macronodular Adrenal Hyperplasia
p2624
sg15
I4
sasa(dp2625
g2
S'CORNEA PLANA 2 is an entity.'
p2626
sg4
(lp2627
sg6
(lp2628
(dp2629
g9
I0
sg10
VC1857574
p2630
sg12
I14
sg13
VCORNEA PLANA 2
p2631
sg15
I3
sasa(dp2632
g2
S'Amaurosis hypertrichosis is an entity.'
p2633
sg4
(lp2634
sg6
(lp2635
(dp2636
g9
I0
sg10
VC1857588
p2637
sg12
I24
sg13
VAmaurosis hypertrichosis
p2638
sg15
I2
sasa(dp2639
g2
S'KALLMANN SYNDROME 4 (disorder) is an entity.'
p2640
sg4
(lp2641
sg6
(lp2642
(dp2643
g9
I0
sg10
VC1857720
p2644
sg12
I19
sg13
VKALLMANN SYNDROME 4
p2645
sg15
I3
sasa(dp2646
g2
S'MACULAR DEGENERATION, AGE-RELATED, NEOVASCULAR TYPE, SUSCEPTIBILITY TO is an entity.'
p2647
sg4
(lp2648
sg6
(lp2649
(dp2650
g9
I0
sg10
VC0242383
p2651
sg12
I33
sg13
VMACULAR DEGENERATION, AGE-RELATED
p2652
sg15
I3
sasa(dp2653
g2
S'Proopiomelanocortin Deficiency is an entity.'
p2654
sg4
(lp2655
(dp2656
g9
I0
sg55
VP01189
p2657
sg12
I19
sg13
VProopiomelanocortin
p2658
sg15
I1
sasg6
(lp2659
(dp2660
g9
I0
sg10
VC1857854
p2661
sg12
I30
sg13
VProopiomelanocortin Deficiency
p2662
sg15
I2
sasa(dp2663
g2
S'Hypobetalipoproteinemia, Familial, 2 is an entity.'
p2664
sg4
(lp2665
sg6
(lp2666
(dp2667
g9
I0
sg10
VC1857970
p2668
sg12
I36
sg13
VHypobetalipoproteinemia, Familial, 2
p2669
sg15
I3
sasa(dp2670
g2
S'Periorbital fullness is an entity.'
p2671
sg4
(lp2672
sg6
(lp2673
sa(dp2674
g2
S'SPASTIC PARAPLEGIA 12, AUTOSOMAL DOMINANT (disorder) is an entity.'
p2675
sg4
(lp2676
sg6
(lp2677
(dp2678
g9
I0
sg10
VC1858106
p2679
sg12
I41
sg13
VSPASTIC PARAPLEGIA 12, AUTOSOMAL DOMINANT
p2680
sg15
I5
sasa(dp2681
g2
S'CRANIOSYNOSTOSIS, TYPE 2 is an entity. \n'
p2682
sg4
(lp2683
(dp2684
g9
I0
sg55
g66
sg12
I16
sg13
VCRANIOSYNOSTOSIS
p2685
sg15
I1
sasg6
(lp2686
(dp2687
g9
I0
sg10
VC1858160
p2688
sg12
I24
sg13
VCRANIOSYNOSTOSIS, TYPE 2
p2689
sg15
I3
sasa(dp2690
g2
S'Neuropathy, hereditary motor and sensory, Okinawa type is an entity.'
p2691
sg4
(lp2692
sg6
(lp2693
(dp2694
g9
I0
sg10
VC1858338
p2695
sg12
I54
sg13
VNeuropathy, hereditary motor and sensory, Okinawa type
p2696
sg15
I7
sasa(dp2697
g2
S'ATAXIA-TELANGIECTASIA-LIKE DISORDER is an entity.'
p2698
sg4
(lp2699
sg6
(lp2700
(dp2701
g9
I0
sg10
VC1858391
p2702
sg12
I35
sg13
VATAXIA-TELANGIECTASIA-LIKE DISORDER
p2703
sg15
I2
sasa(dp2704
g2
S'Tubular atrophy is an entity.'
p2705
sg4
(lp2706
sg6
(lp2707
(dp2708
g9
I8
sg10
VC0333641
p2709
sg12
I7
sg13
Vatrophy
p2710
sg15
I1
sasa(dp2711
g2
S'Limited extraocular movements is an entity.'
p2712
sg4
(lp2713
sg6
(lp2714
sa(dp2715
g2
S'Death in infancy is an entity.'
p2716
sg4
(lp2717
sg6
(lp2718
sa(dp2719
g2
S'Denervation of the diaphragm is an entity.'
p2720
sg4
(lp2721
sg6
(lp2722
sa(dp2723
g2
S'OVERLAP CONNECTIVE TISSUE DISEASE is an entity.'
p2724
sg4
(lp2725
sg6
(lp2726
(dp2727
g9
I0
sg10
VC1858556
p2728
sg12
I33
sg13
VOVERLAP CONNECTIVE TISSUE DISEASE
p2729
sg15
I4
sasa(dp2730
g2
S'Spastic paraplegia 10, autosomal dominant is an entity.'
p2731
sg4
(lp2732
sg6
(lp2733
(dp2734
g9
I0
sg10
VC1858712
p2735
sg12
I41
sg13
VSpastic paraplegia 10, autosomal dominant
p2736
sg15
I5
sasa(dp2737
g2
S'Cardiomyopathy, Dilated, 1g is an entity.'
p2738
sg4
(lp2739
sg6
(lp2740
(dp2741
g9
I0
sg10
VC1858763
p2742
sg12
I27
sg13
VCardiomyopathy, Dilated, 1g
p2743
sg15
I3
sasa(dp2744
g2
S'Second metatarsal posteriorly placed is an entity. \n'
p2745
sg4
(lp2746
sg6
(lp2747
sa(dp2748
g2
S'Midfrontal capillary hemangioma is an entity.'
p2749
sg4
(lp2750
sg6
(lp2751
(dp2752
g9
I11
sg10
VC0085666
p2753
sg12
I20
sg13
Vcapillary hemangioma
p2754
sg15
I2
sasa(dp2755
g2
S'Candidiasis, Familial, 2 is an entity.'
p2756
sg4
(lp2757
sg6
(lp2758
(dp2759
g9
I0
sg10
VC1859353
p2760
sg12
I24
sg13
VCandidiasis, Familial, 2
p2761
sg15
I3
sasa(dp2762
g2
S'Fused sternal ossification centers is an entity.'
p2763
sg4
(lp2764
sg6
(lp2765
sa(dp2766
g2
S'BARDET-BIEDL SYNDROME 10 is an entity.'
p2767
sg4
(lp2768
sg6
(lp2769
(dp2770
g9
I0
sg10
VC1859568
p2771
sg12
I24
sg13
VBARDET-BIEDL SYNDROME 10
p2772
sg15
I3
sasa(dp2773
g2
S'BARDET-BIEDL SYNDROME 11 is an entity.'
p2774
sg4
(lp2775
(dp2776
g9
I0
sg55
g66
sg12
I24
sg13
VBARDET-BIEDL SYNDROME 11
p2777
sg15
I3
sasg6
(lp2778
(dp2779
g9
I0
sg10
VC1859569
p2780
sg12
I24
sg13
VBARDET-BIEDL SYNDROME 11
p2781
sg15
I3
sasa(dp2782
g2
S'Arthrogryposis renal dysfunction cholestasis syndrome is an entity.'
p2783
sg4
(lp2784
sg6
(lp2785
(dp2786
g9
I0
sg10
VC1859722
p2787
sg12
I53
sg13
VArthrogryposis renal dysfunction cholestasis syndrome
p2788
sg15
I5
sasa(dp2789
g2
S'Fused 4th-5th metacarpals is an entity.'
p2790
sg4
(lp2791
sg6
(lp2792
sa(dp2793
g2
S'Freckles in sun-exposed areas is an entity.'
p2794
sg4
(lp2795
sg6
(lp2796
sa(dp2797
g2
S'WOOLLY HAIR, AUTOSOMAL DOMINANT is an entity.'
p2798
sg4
(lp2799
sg6
(lp2800
(dp2801
g9
I0
sg10
VC0343073
p2802
sg12
I11
sg13
VWOOLLY HAIR
p2803
sg15
I2
sasa(dp2804
g2
S'Sternal ossification center abnormalities is an entity. \n'
p2805
sg4
(lp2806
sg6
(lp2807
sa(dp2808
g2
S'Whispering dysphonia, hereditary is an entity.'
p2809
sg4
(lp2810
sg6
(lp2811
(dp2812
g9
I0
sg10
VC1860315
p2813
sg12
I32
sg13
VWhispering dysphonia, hereditary
p2814
sg15
I3
sasa(dp2815
g2
S'Cone-shaped epiphyses of middle phalanges is an entity.'
p2816
sg4
(lp2817
sg6
(lp2818
sa(dp2819
g2
S'THROMBOCYTOPENIA 2 (disorder) is an entity.'
p2820
sg4
(lp2821
(dp2822
g9
I0
sg55
g66
sg12
I18
sg13
VTHROMBOCYTOPENIA 2
p2823
sg15
I2
sasg6
(lp2824
(dp2825
g9
I0
sg10
VC1861185
p2826
sg12
I18
sg13
VTHROMBOCYTOPENIA 2
p2827
sg15
I2
sasa(dp2828
g2
S'Thrombasthenia-Thrombocytopenia, Hereditary is an entity.'
p2829
sg4
(lp2830
sg6
(lp2831
(dp2832
g9
I0
sg10
VC1861194
p2833
sg12
I43
sg13
VThrombasthenia-Thrombocytopenia, Hereditary
p2834
sg15
I2
sasa(dp2835
g2
S'Wide-cupped costochondral junctions is an entity.'
p2836
sg4
(lp2837
sg6
(lp2838
sa(dp2839
g2
S'Small foramen magnum is an entity.'
p2840
sg4
(lp2841
sg6
(lp2842
sa(dp2843
g2
S'Absent distal phalanges is an entity.'
p2844
sg4
(lp2845
sg6
(lp2846
sa(dp2847
g2
S'2nd-5th toe middle phalangeal hypoplasia is an entity.'
p2848
sg4
(lp2849
sg6
(lp2850
(dp2851
g9
I19
sg10
VC0877165
p2852
sg12
I21
sg13
Vphalangeal hypoplasia
p2853
sg15
I2
sasa(dp2854
g2
S'Pseudohyperkalemia Cardiff is an entity.'
p2855
sg4
(lp2856
sg6
(lp2857
(dp2858
g9
I0
sg10
VC1861453
p2859
sg12
I26
sg13
VPseudohyperkalemia Cardiff
p2860
sg15
I2
sasa(dp2861
g2
S'Stiff Skin Syndrome is an entity. \n'
p2862
sg4
(lp2863
sg6
(lp2864
(dp2865
g9
I0
sg10
VC1861456
p2866
sg12
I19
sg13
VStiff Skin Syndrome
p2867
sg15
I3
sasa(dp2868
g2
S'Nonsyndromic cleft lip with or without cleft palate is an entity.'
p2869
sg4
(lp2870
sg6
(lp2871
(dp2872
g9
I39
sg10
VC0008925
p2873
sg12
I12
sg13
Vcleft palate
p2874
sg15
I2
sa(dp2875
g9
I13
sg10
VC0008924
p2876
sg12
I9
sg13
Vcleft lip
p2877
sg15
I2
sasa(dp2878
g2
S'Retinal vascular malformations is an entity.'
p2879
sg4
(lp2880
sg6
(lp2881
(dp2882
g9
I0
sg10
VC0549652
p2883
sg12
I16
sg13
VRetinal vascular
p2884
sg15
I2
sa(dp2885
g9
I8
sg10
VC0158570
p2886
sg12
I22
sg13
Vvascular malformations
p2887
sg15
I2
sasa(dp2888
g2
S'CATARACT, POSTERIOR POLAR, 1 is an entity.'
p2889
sg4
(lp2890
sg6
(lp2891
(dp2892
g9
I0
sg10
VC1861825
p2893
sg12
I28
sg13
VCATARACT, POSTERIOR POLAR, 1
p2894
sg15
I4
sasa(dp2895
g2
S'CARDIOMYOPATHY, FAMILIAL RESTRICTIVE, 1 (disorder) is an entity.'
p2896
sg4
(lp2897
sg6
(lp2898
(dp2899
g9
I0
sg10
VC1861861
p2900
sg12
I39
sg13
VCARDIOMYOPATHY, FAMILIAL RESTRICTIVE, 1
p2901
sg15
I4
sasa(dp2902
g2
S'Brachydactyly type C is an entity.'
p2903
sg4
(lp2904
sg6
(lp2905
(dp2906
g9
I0
sg10
VC1862103
p2907
sg12
I20
sg13
VBrachydactyly type C
p2908
sg15
I3
sasa(dp2909
g2
S'Proportionate shortening of all digits is an entity.'
p2910
sg4
(lp2911
sg6
(lp2912
sa(dp2913
g2
S'BPES, TYPE I is an entity.'
p2914
sg4
(lp2915
sg6
(lp2916
(dp2917
g9
I0
sg10
VC1862260
p2918
sg12
I12
sg13
VBPES, TYPE I
p2919
sg15
I3
sasa(dp2920
g2
S'Elevated gonadotropins is an entity.'
p2921
sg4
(lp2922
sg6
(lp2923
sa(dp2924
g2
S'Facial-lingual fasciculations is an entity.'
p2925
sg4
(lp2926
sg6
(lp2927
(dp2928
g9
I15
sg10
VC0015644
p2929
sg12
I14
sg13
Vfasciculations
p2930
sg15
I1
sasa(dp2931
g2
S'Tombstone-shaped proximal phalanges is an entity. \n'
p2932
sg4
(lp2933
sg6
(lp2934
sa(dp2935
g2
S'Thoracic platyspondyly is an entity.'
p2936
sg4
(lp2937
sg6
(lp2938
(dp2939
g9
I0
sg10
VC0729233
p2940
sg12
I8
sg13
VThoracic
p2941
sg15
I1
sasa(dp2942
g2
S'Aryl Hydrocarbon Hydroxylase Inducibility is an entity.'
p2943
sg4
(lp2944
(dp2945
g9
I0
sg55
VP20853
p2946
sg12
I28
sg13
VAryl Hydrocarbon Hydroxylase
p2947
sg15
I3
sasg6
(lp2948
(dp2949
g9
I0
sg10
VC1862463
p2950
sg12
I41
sg13
VAryl Hydrocarbon Hydroxylase Inducibility
p2951
sg15
I4
sasa(dp2952
g2
S'Increased hepatocellular carcinoma risk is an entity.'
p2953
sg4
(lp2954
sg6
(lp2955
(dp2956
g9
I10
sg10
VC1512411
p2957
sg12
I24
sg13
Vhepatocellular carcinoma
p2958
sg15
I2
sasa(dp2959
g2
S'IgA NEPHROPATHY, PROGRESSION TO RENAL FAILURE IN, SUSCEPTIBILITY TO is an entity.'
p2960
sg4
(lp2961
(dp2962
g9
I0
sg55
VP11912
p2963
sg12
I3
sg13
VIgA
p2964
sg15
I1
sasg6
(lp2965
(dp2966
g9
I32
sg10
VC0035078
p2967
sg12
I13
sg13
VRENAL FAILURE
p2968
sg15
I2
sa(dp2969
g9
I0
sg10
VC0017661
p2970
sg12
I15
sg13
VIgA NEPHROPATHY
p2971
sg15
I2
sasa(dp2972
g2
S'Generalized amyloid deposition is an entity.'
p2973
sg4
(lp2974
sg6
(lp2975
(dp2976
g9
I12
sg10
VC0011560
p2977
sg12
I18
sg13
Vamyloid deposition
p2978
sg15
I2
sasa(dp2979
g2
S'ALZHEIMER DISEASE, FAMILIAL, 1 is an entity.'
p2980
sg4
(lp2981
sg6
(lp2982
(dp2983
g9
I0
sg10
VC1863052
p2984
sg12
I30
sg13
VALZHEIMER DISEASE, FAMILIAL, 1
p2985
sg15
I4
sasa(dp2986
g2
S'Hypoplastic lacrimal gland is an entity.'
p2987
sg4
(lp2988
sg6
(lp2989
sa(dp2990
g2
S'Cartilaginous trachea is an entity.'
p2991
sg4
(lp2992
sg6
(lp2993
(dp2994
g9
I14
sg10
VC0040580
p2995
sg12
I7
sg13
Vtrachea
p2996
sg15
I1
sasa(dp2997
g2
S'PROSTATE CANCER/BRAIN CANCER SUSCEPTIBILITY (finding) is an entity.'
p2998
sg4
(lp2999
(dp3000
g9
I16
sg55
g66
sg12
I27
sg13
VBRAIN CANCER SUSCEPTIBILITY
p3001
sg15
I3
sasg6
(lp3002
(dp3003
g9
I0
sg10
VC0600139
p3004
sg12
I15
sg13
VPROSTATE CANCER
p3005
sg15
I2
sa(dp3006
g9
I16
sg10
VC0153633
p3007
sg12
I12
sg13
VBRAIN CANCER
p3008
sg15
I2
sasa(dp3009
g2
S'Cone-Rod Dystrophy 7 is an entity. \n'
p3010
sg4
(lp3011
(dp3012
g9
I0
sg55
g66
sg12
I20
sg13
VCone-Rod Dystrophy 7
p3013
sg15
I3
sasg6
(lp3014
(dp3015
g9
I0
sg10
VC1863634
p3016
sg12
I20
sg13
VCone-Rod Dystrophy 7
p3017
sg15
I3
sasa(dp3018
g2
S'HEMOPHAGOCYTIC LYMPHOHISTIOCYTOSIS, FAMILIAL, 2 is an entity.'
p3019
sg4
(lp3020
sg6
(lp3021
(dp3022
g9
I0
sg10
VC1863727
p3023
sg12
I47
sg13
VHEMOPHAGOCYTIC LYMPHOHISTIOCYTOSIS, FAMILIAL, 2
p3024
sg15
I4
sasa(dp3025
g2
S'Caudal narrowing of interpedicular distances is an entity.'
p3026
sg4
(lp3027
sg6
(lp3028
sa(dp3029
g2
S'Narrow femoral necks is an entity.'
p3030
sg4
(lp3031
sg6
(lp3032
sa(dp3033
g2
S'DIABETES MELLITUS, INSULIN-DEPENDENT, 17 is an entity.'
p3034
sg4
(lp3035
sg6
(lp3036
(dp3037
g9
I0
sg10
VC1864068
p3038
sg12
I40
sg13
VDIABETES MELLITUS, INSULIN-DEPENDENT, 17
p3039
sg15
I4
sasa(dp3040
g2
S'Low urinary cyclic AMP response to PTH administration is an entity.'
p3041
sg4
(lp3042
(dp3043
g9
I35
sg55
VP01270
p3044
sg12
I3
sg13
VPTH
p3045
sg15
I1
sasg6
(lp3046
sa(dp3047
g2
S'Dermatitis, Atopic, 1 is an entity.'
p3048
sg4
(lp3049
sg6
(lp3050
(dp3051
g9
I0
sg10
VC1864155
p3052
sg12
I21
sg13
VDermatitis, Atopic, 1
p3053
sg15
I3
sasa(dp3054
g2
S'SCHIZOPHRENIA 6 (disorder) is an entity.'
p3055
sg4
(lp3056
(dp3057
g9
I0
sg55
VP35462
p3058
sg12
I15
sg13
VSCHIZOPHRENIA 6
p3059
sg15
I2
sasg6
(lp3060
(dp3061
g9
I0
sg10
VC0036341
p3062
sg12
I13
sg13
VSCHIZOPHRENIA
p3063
sg15
I1
sasa(dp3064
g2
S'NEURONAL CEROID LIPOFUSCINOSIS DUE TO CATHEPSIN D DEFICIENCY is an entity.'
p3065
sg4
(lp3066
sg6
(lp3067
(dp3068
g9
I0
sg10
VC1864669
p3069
sg12
I60
sg13
VNEURONAL CEROID LIPOFUSCINOSIS DUE TO CATHEPSIN D DEFICIENCY
p3070
sg15
I8
sasa(dp3071
g2
S'Microphthalmia, Cataracts, and Iris Abnormalities is an entity.'
p3072
sg4
(lp3073
sg6
(lp3074
(dp3075
g9
I0
sg10
VC1864722
p3076
sg12
I49
sg13
VMicrophthalmia, Cataracts, and Iris Abnormalities
p3077
sg15
I5
sasa(dp3078
g2
S'PIGMENTED NODULAR ADRENOCORTICAL DISEASE, PRIMARY, 1 (disorder) is an entity. \n'
p3079
sg4
(lp3080
sg6
(lp3081
(dp3082
g9
I0
sg10
VC1864846
p3083
sg12
I52
sg13
VPIGMENTED NODULAR ADRENOCORTICAL DISEASE, PRIMARY, 1
p3084
sg15
I6
sasa(dp3085
g2
S'Increased vertebral height is an entity.'
p3086
sg4
(lp3087
sg6
(lp3088
sa(dp3089
g2
S'Night Blindness, Congenital Stationary, Autosomal Dominant 3 is an entity.'
p3090
sg4
(lp3091
sg6
(lp3092
(dp3093
g9
I0
sg10
VC1864870
p3094
sg12
I60
sg13
VNight Blindness, Congenital Stationary, Autosomal Dominant 3
p3095
sg15
I7
sasa(dp3096
g2
S'MYOPIA 11 (disorder) is an entity.'
p3097
sg4
(lp3098
sg6
(lp3099
(dp3100
g9
I0
sg10
VC0027092
p3101
sg12
I6
sg13
VMYOPIA
p3102
sg15
I1
sasa(dp3103
g2
S'Shallow orbits is an entity.'
p3104
sg4
(lp3105
sg6
(lp3106
sa(dp3107
g2
S'Temporomandibular joint abnormalities is an entity.'
p3108
sg4
(lp3109
sg6
(lp3110
sa(dp3111
g2
S'ALZHEIMER DISEASE 5 is an entity.'
p3112
sg4
(lp3113
sg6
(lp3114
(dp3115
g9
I0
sg10
VC1865868
p3116
sg12
I19
sg13
VALZHEIMER DISEASE 5
p3117
sg15
I3
sasa(dp3118
g2
S'CONE DYSTROPHY 3 (disorder) is an entity.'
p3119
sg4
(lp3120
(dp3121
g9
I0
sg55
VP43080
p3122
sg12
I16
sg13
VCONE DYSTROPHY 3
p3123
sg15
I3
sasg6
(lp3124
(dp3125
g9
I0
sg10
VC1865869
p3126
sg12
I16
sg13
VCONE DYSTROPHY 3
p3127
sg15
I3
sasa(dp3128
g2
S'DIABETES MELLITUS, INSULIN-DEPENDENT, 6 is an entity.'
p3129
sg4
(lp3130
sg6
(lp3131
(dp3132
g9
I0
sg10
VC1866041
p3133
sg12
I39
sg13
VDIABETES MELLITUS, INSULIN-DEPENDENT, 6
p3134
sg15
I4
sasa(dp3135
g2
S'Tractional retinal detachment is an entity.'
p3136
sg4
(lp3137
sg6
(lp3138
(dp3139
g9
I11
sg10
VC0035305
p3140
sg12
I18
sg13
Vretinal detachment
p3141
sg15
I2
sasa(dp3142
g2
S'Atresia of the external auditory canal is an entity. \n'
p3143
sg4
(lp3144
sg6
(lp3145
(dp3146
g9
I0
sg10
VC0243066
p3147
sg12
I7
sg13
VAtresia
p3148
sg15
I1
sasa(dp3149
g2
S'CEROID LIPOFUSCINOSIS, NEURONAL, 6 is an entity.'
p3150
sg4
(lp3151
sg6
(lp3152
(dp3153
g9
I0
sg10
VC1866282
p3154
sg12
I34
sg13
VCEROID LIPOFUSCINOSIS, NEURONAL, 6
p3155
sg15
I4
sasa(dp3156
g2
S'Proteus-Like Syndrome (disorder) is an entity.'
p3157
sg4
(lp3158
sg6
(lp3159
(dp3160
g9
I0
sg10
VC1866398
p3161
sg12
I21
sg13
VProteus-Like Syndrome
p3162
sg15
I2
sasa(dp3163
g2
S'Hyperprostaglandinuria is an entity.'
p3164
sg4
(lp3165
sg6
(lp3166
sa(dp3167
g2
S'Photosensitive Trichothiodystrophy is an entity.'
p3168
sg4
(lp3169
sg6
(lp3170
(dp3171
g9
I0
sg10
VC1866504
p3172
sg12
I34
sg13
VPhotosensitive Trichothiodystrophy
p3173
sg15
I2
sasa(dp3174
g2
S'PARAGANGLIOMAS 2 (disorder) is an entity.'
p3175
sg4
(lp3176
(dp3177
g9
I0
sg55
g66
sg12
I14
sg13
VPARAGANGLIOMAS
p3178
sg15
I1
sasg6
(lp3179
(dp3180
g9
I0
sg10
VC1866552
p3181
sg12
I16
sg13
VPARAGANGLIOMAS 2
p3182
sg15
I2
sasa(dp3183
g2
S'Impaired horizontal smooth pursuit is an entity.'
p3184
sg4
(lp3185
sg6
(lp3186
(dp3187
g9
I0
sg10
VC0684336
p3188
sg12
I8
sg13
VImpaired
p3189
sg15
I1
sasa(dp3190
g2
S'Spastic paraplegia 4, autosomal dominant is an entity.'
p3191
sg4
(lp3192
sg6
(lp3193
(dp3194
g9
I0
sg10
VC1866855
p3195
sg12
I40
sg13
VSpastic paraplegia 4, autosomal dominant
p3196
sg15
I5
sasa(dp3197
g2
S'Social and occupational deterioration is an entity.'
p3198
sg4
(lp3199
sg6
(lp3200
sa(dp3201
g2
S'SCHISTOSOMA MANSONI INFECTION, SUSCEPTIBILITY/RESISTANCE TO is an entity.'
p3202
sg4
(lp3203
sg6
(lp3204
(dp3205
g9
I0
sg10
VC1866993
p3206
sg12
I59
sg13
VSCHISTOSOMA MANSONI INFECTION, SUSCEPTIBILITY/RESISTANCE TO
p3207
sg15
I5
sasa(dp3208
g2
S'Upper limb postural tremor is an entity. \n'
p3209
sg4
(lp3210
sg6
(lp3211
(dp3212
g9
I11
sg10
VC0234378
p3213
sg12
I15
sg13
Vpostural tremor
p3214
sg15
I2
sasa(dp3215
g2
S'Robinow Sorauf syndrome is an entity.'
p3216
sg4
(lp3217
sg6
(lp3218
(dp3219
g9
I0
sg10
VC1867146
p3220
sg12
I23
sg13
VRobinow Sorauf syndrome
p3221
sg15
I3
sasa(dp3222
g2
S'PTOSIS, HEREDITARY CONGENITAL 1 (disorder) is an entity.'
p3223
sg4
(lp3224
sg6
(lp3225
(dp3226
g9
I0
sg10
VC1867438
p3227
sg12
I31
sg13
VPTOSIS, HEREDITARY CONGENITAL 1
p3228
sg15
I4
sasa(dp3229
g2
S'Hyperprothrombinemia is an entity.'
p3230
sg4
(lp3231
sg6
(lp3232
(dp3233
g9
I0
sg10
VC1867596
p3234
sg12
I20
sg13
VHyperprothrombinemia
p3235
sg15
I1
sasa(dp3236
g2
S'LONG QT SYNDROME 5 is an entity.'
p3237
sg4
(lp3238
sg6
(lp3239
(dp3240
g9
I0
sg10
VC1867904
p3241
sg12
I18
sg13
VLONG QT SYNDROME 5
p3242
sg15
I4
sasa(dp3243
g2
S'Porphyria, Acute Intermittent, Nonerythroid Variant is an entity.'
p3244
sg4
(lp3245
sg6
(lp3246
(dp3247
g9
I0
sg10
VC1867969
p3248
sg12
I51
sg13
VPorphyria, Acute Intermittent, Nonerythroid Variant
p3249
sg15
I5
sasa(dp3250
g2
S'Acute episodes of neuropathic symptoms is an entity.'
p3251
sg4
(lp3252
sg6
(lp3253
sa(dp3254
g2
S'Polyposis Of Gastric Fundus Without Polyposis Coli is an entity.'
p3255
sg4
(lp3256
sg6
(lp3257
(dp3258
g9
I0
sg10
VC1868001
p3259
sg12
I50
sg13
VPolyposis Of Gastric Fundus Without Polyposis Coli
p3260
sg15
I7
sasa(dp3261
g2
S'Crossed Polydactyly, Type I is an entity.'
p3262
sg4
(lp3263
sg6
(lp3264
(dp3265
g9
I0
sg10
VC1868112
p3266
sg12
I27
sg13
VCrossed Polydactyly, Type I
p3267
sg15
I4
sasa(dp3268
g2
S'PARIETAL FORAMINA 1 is an entity.'
p3269
sg4
(lp3270
(dp3271
g9
I0
sg55
VP35548
p3272
sg12
I19
sg13
VPARIETAL FORAMINA 1
p3273
sg15
I3
sasg6
(lp3274
(dp3275
g9
I0
sg10
VC1868599
p3276
sg12
I19
sg13
VPARIETAL FORAMINA 1
p3277
sg15
I3
sasa(dp3278
g2
S'Parastremmatic dwarfism is an entity. \n'
p3279
sg4
(lp3280
sg6
(lp3281
(dp3282
g9
I0
sg10
VC1868616
p3283
sg12
I23
sg13
VParastremmatic dwarfism
p3284
sg15
I2
sasa(dp3285
g2
S'Weill-Marchesani Syndrome, Autosomal Recessive is an entity.'
p3286
sg4
(lp3287
sg6
(lp3288
(dp3289
g9
I0
sg10
VC1869114
p3290
sg12
I46
sg13
VWeill-Marchesani Syndrome, Autosomal Recessive
p3291
sg15
I4
sasa(dp3292
g2
S'Ataxia-Telangiectasia Variant is an entity.'
p3293
sg4
(lp3294
sg6
(lp3295
(dp3296
g9
I0
sg10
VC1876175
p3297
sg12
I29
sg13
VAtaxia-Telangiectasia Variant
p3298
sg15
I2
sasa(dp3299
g2
S'Dysgnathia complex is an entity.'
p3300
sg4
(lp3301
sg6
(lp3302
(dp3303
g9
I0
sg10
VC1876185
p3304
sg12
I18
sg13
VDysgnathia complex
p3305
sg15
I2
sasa(dp3306
g2
S'Deaf-Blind Disorders is an entity.'
p3307
sg4
(lp3308
sg6
(lp3309
(dp3310
g9
I0
sg10
VC1955603
p3311
sg12
I20
sg13
VDeaf-Blind Disorders
p3312
sg15
I2
sasa(dp3313
g2
S'Extranodal marginal zone B-cell lymphoma is an entity.'
p3314
sg4
(lp3315
sg6
(lp3316
(dp3317
g9
I0
sg10
VC1955690
p3318
sg12
I40
sg13
VExtranodal marginal zone B-cell lymphoma
p3319
sg15
I5
sasa(dp3320
g2
S'Trichothiodystrophy Syndromes is an entity.'
p3321
sg4
(lp3322
sg6
(lp3323
(dp3324
g9
I0
sg10
VC1955934
p3325
sg12
I29
sg13
VTrichothiodystrophy Syndromes
p3326
sg15
I2
sasa(dp3327
g2
S'Lymphoma, Follicular, Grade 1 is an entity.'
p3328
sg4
(lp3329
sg6
(lp3330
(dp3331
g9
I0
sg10
VC1956130
p3332
sg12
I29
sg13
VLymphoma, Follicular, Grade 1
p3333
sg15
I4
sasa(dp3334
g2
S'Ventricular Free Wall Rupture is an entity.'
p3335
sg4
(lp3336
sg6
(lp3337
(dp3338
g9
I0
sg10
VC1959587
p3339
sg12
I29
sg13
VVentricular Free Wall Rupture
p3340
sg15
I4
sasa(dp3341
g2
S'Latent autoimmune diabetes mellitus in adult is an entity.'
p3342
sg4
(lp3343
sg6
(lp3344
(dp3345
g9
I0
sg10
VC1960272
p3346
sg12
I44
sg13
VLatent autoimmune diabetes mellitus in adult
p3347
sg15
I6
sasa(dp3348
g2
S'Philadelphia chromosome-positive acute lymphoblastic leukemia is an entity. \n'
p3349
sg4
(lp3350
sg6
(lp3351
(dp3352
g9
I0
sg10
VC1960397
p3353
sg12
I61
sg13
VPhiladelphia chromosome-positive acute lymphoblastic leukemia
p3354
sg15
I5
sasa(dp3355
g2
S'Retinoic acid - acute promyelocytic leukemia syndrome is an entity.'
p3356
sg4
(lp3357
sg6
(lp3358
(dp3359
g9
I0
sg10
VC1960458
p3360
sg12
I53
sg13
VRetinoic acid - acute promyelocytic leukemia syndrome
p3361
sg15
I7
sasa(dp3362
g2
S'Transformed migraine is an entity.'
p3363
sg4
(lp3364
sg6
(lp3365
(dp3366
g9
I0
sg10
VC1960870
p3367
sg12
I20
sg13
VTransformed migraine
p3368
sg15
I2
sasa(dp3369
g2
S'Precursor T-Cell Lymphoblastic Leukemia-Lymphoma is an entity.'
p3370
sg4
(lp3371
sg6
(lp3372
(dp3373
g9
I0
sg10
VC1961099
p3374
sg12
I48
sg13
VPrecursor T-Cell Lymphoblastic Leukemia-Lymphoma
p3375
sg15
I4
sasa(dp3376
g2
S'Vital Capacity Adverse Event is an entity.'
p3377
sg4
(lp3378
sg6
(lp3379
sa(dp3380
g2
S'Obesity Adverse Event is an entity.'
p3381
sg4
(lp3382
sg6
(lp3383
(dp3384
g9
I0
sg10
VC0028754
p3385
sg12
I7
sg13
VObesity
p3386
sg15
I1
sasa(dp3387
g2
S'Atherothrombosis is an entity.'
p3388
sg4
(lp3389
sg6
(lp3390
(dp3391
g9
I0
sg10
VC1963943
p3392
sg12
I16
sg13
VAtherothrombosis
p3393
sg15
I1
sasa(dp3394
g2
S'LEPROSY, SUSCEPTIBILITY TO, 3 is an entity.'
p3395
sg4
(lp3396
sg6
(lp3397
(dp3398
g9
I0
sg10
VC0023343
p3399
sg12
I7
sg13
VLEPROSY
p3400
sg15
I1
sasa(dp3401
g2
S'Primary Lateral Sclerosis, Adult, 1 is an entity.'
p3402
sg4
(lp3403
sg6
(lp3404
(dp3405
g9
I0
sg10
VC1968845
p3406
sg12
I35
sg13
VPrimary Lateral Sclerosis, Adult, 1
p3407
sg15
I5
sasa(dp3408
g2
S'Epilepsy, Familial Mesial Temporal Lobe is an entity.'
p3409
sg4
(lp3410
sg6
(lp3411
(dp3412
g9
I0
sg10
VC1968848
p3413
sg12
I39
sg13
VEpilepsy, Familial Mesial Temporal Lobe
p3414
sg15
I5
sasa(dp3415
g2
S'Cakut is an entity. \n'
p3416
sg4
(lp3417
sg6
(lp3418
(dp3419
g9
I0
sg10
VC1968949
p3420
sg12
I5
sg13
VCakut
p3421
sg15
I1
sasa(dp3422
g2
S'CARDIOMYOPATHY, DILATED, 1X is an entity.'
p3423
sg4
(lp3424
(dp3425
g9
I0
sg55
VP21941
p3426
sg12
I14
sg13
VCARDIOMYOPATHY
p3427
sg15
I1
sasg6
(lp3428
(dp3429
g9
I0
sg10
VC1969024
p3430
sg12
I27
sg13
VCARDIOMYOPATHY, DILATED, 1X
p3431
sg15
I3
sasa(dp3432
g2
S'Cataract, Autosomal Dominant, Multiple Types 1 is an entity.'
p3433
sg4
(lp3434
sg6
(lp3435
(dp3436
g9
I0
sg10
VC1969032
p3437
sg12
I46
sg13
VCataract, Autosomal Dominant, Multiple Types 1
p3438
sg15
I6
sasa(dp3439
g2
S'RENAL TUBULAR ACIDOSIS, DISTAL, WITH HEMOLYTIC ANEMIA (disorder) is an entity.'
p3440
sg4
(lp3441
sg6
(lp3442
(dp3443
g9
I0
sg10
VC1969038
p3444
sg12
I53
sg13
VRENAL TUBULAR ACIDOSIS, DISTAL, WITH HEMOLYTIC ANEMIA
p3445
sg15
I7
sasa(dp3446
g2
S'Hyperchloremic metabolic acidosis is an entity.'
p3447
sg4
(lp3448
sg6
(lp3449
(dp3450
g9
I15
sg10
VC0220981
p3451
sg12
I18
sg13
Vmetabolic acidosis
p3452
sg15
I2
sasa(dp3453
g2
S'Mesomelic lower limb shortening is an entity.'
p3454
sg4
(lp3455
sg6
(lp3456
sa(dp3457
g2
S'Tapered distal phalanges is an entity.'
p3458
sg4
(lp3459
sg6
(lp3460
sa(dp3461
g2
S'PULMONARY HYPERTENSION, PRIMARY, DEXFENFLURAMINE-ASSOCIATED is an entity.'
p3462
sg4
(lp3463
sg6
(lp3464
(dp3465
g9
I0
sg10
VC1969342
p3466
sg12
I59
sg13
VPULMONARY HYPERTENSION, PRIMARY, DEXFENFLURAMINE-ASSOCIATED
p3467
sg15
I4
sasa(dp3468
g2
S'Limb contractures is an entity.'
p3469
sg4
(lp3470
sg6
(lp3471
(dp3472
g9
I5
sg10
VC0009917
p3473
sg12
I12
sg13
Vcontractures
p3474
sg15
I1
sasa(dp3475
g2
S'ATAXIA, SPASTIC, 1, AUTOSOMAL DOMINANT is an entity.'
p3476
sg4
(lp3477
sg6
(lp3478
(dp3479
g9
I0
sg10
VC1970107
p3480
sg12
I38
sg13
VATAXIA, SPASTIC, 1, AUTOSOMAL DOMINANT
p3481
sg15
I5
sasa(dp3482
g2
S'CARDIAC ARRHYTHMIA, ANKYRIN-B-RELATED is an entity. \n'
p3483
sg4
(lp3484
(dp3485
g9
I20
sg55
g66
sg12
I9
sg13
VANKYRIN-B
p3486
sg15
I1
sasg6
(lp3487
(dp3488
g9
I0
sg10
VC1970119
p3489
sg12
I37
sg13
VCARDIAC ARRHYTHMIA, ANKYRIN-B-RELATED
p3490
sg15
I3
sasa(dp3491
g2
S'Alzheimer Disease 14 is an entity.'
p3492
sg4
(lp3493
sg6
(lp3494
(dp3495
g9
I0
sg10
VC1970144
p3496
sg12
I20
sg13
VAlzheimer Disease 14
p3497
sg15
I3
sasa(dp3498
g2
S'Blue/yellow color vision defect is an entity.'
p3499
sg4
(lp3500
sg6
(lp3501
(dp3502
g9
I12
sg10
VC0009398
p3503
sg12
I19
sg13
Vcolor vision defect
p3504
sg15
I3
sasa(dp3505
g2
S'Deafness, Sensorineural, And Male Infertility is an entity.'
p3506
sg4
(lp3507
sg6
(lp3508
(dp3509
g9
I0
sg10
VC1970187
p3510
sg12
I45
sg13
VDeafness, Sensorineural, And Male Infertility
p3511
sg15
I5
sasa(dp3512
g2
S'Prostate Cancer, Hereditary, 10 is an entity.'
p3513
sg4
(lp3514
sg6
(lp3515
(dp3516
g9
I0
sg10
VC1970192
p3517
sg12
I31
sg13
VProstate Cancer, Hereditary, 10
p3518
sg15
I4
sasa(dp3519
g2
S'Phosphoserine Aminotransferase Deficiency is an entity.'
p3520
sg4
(lp3521
(dp3522
g9
I0
sg55
g66
sg12
I30
sg13
VPhosphoserine Aminotransferase
p3523
sg15
I2
sasg6
(lp3524
(dp3525
g9
I0
sg10
VC1970253
p3526
sg12
I41
sg13
VPhosphoserine Aminotransferase Deficiency
p3527
sg15
I3
sasa(dp3528
g2
S'Increased susceptibility to Neisseria meningitidis infections is an entity.'
p3529
sg4
(lp3530
sg6
(lp3531
(dp3532
g9
I51
sg10
VC0021311
p3533
sg12
I10
sg13
Vinfections
p3534
sg15
I1
sasa(dp3535
g2
S'Congenital Disorder Of Glycosylation, Type IIF is an entity.'
p3536
sg4
(lp3537
sg6
(lp3538
(dp3539
g9
I0
sg10
VC1970344
p3540
sg12
I46
sg13
VCongenital Disorder Of Glycosylation, Type IIF
p3541
sg15
I6
sasa(dp3542
g2
S'Osteogenesis imperfecta, type VIII is an entity.'
p3543
sg4
(lp3544
sg6
(lp3545
(dp3546
g9
I0
sg10
VC1970458
p3547
sg12
I34
sg13
VOsteogenesis imperfecta, type VIII
p3548
sg15
I4
sasa(dp3549
g2
S'Externally rotated/abducted legs is an entity.'
p3550
sg4
(lp3551
sg6
(lp3552
sa(dp3553
g2
S'Tooth Agenesis, Selective, X-Linked, 1 is an entity. \n'
p3554
sg4
(lp3555
sg6
(lp3556
(dp3557
g9
I0
sg10
VC1970757
p3558
sg12
I38
sg13
VTooth Agenesis, Selective, X-Linked, 1
p3559
sg15
I5
sasa(dp3560
g2
S'Low grade glioma is an entity.'
p3561
sg4
(lp3562
sg6
(lp3563
(dp3564
g9
I0
sg10
VC1997217
p3565
sg12
I16
sg13
VLow grade glioma
p3566
sg15
I3
sasa(dp3567
g2
S'Chlamydia trachomatis infection of genital structure is an entity.'
p3568
sg4
(lp3569
sg6
(lp3570
(dp3571
g9
I0
sg10
VC1997322
p3572
sg12
I52
sg13
VChlamydia trachomatis infection of genital structure
p3573
sg15
I6
sasa(dp3574
g2
S'Cicatrix is an entity.'
p3575
sg4
(lp3576
sg6
(lp3577
(dp3578
g9
I0
sg10
VC2004491
p3579
sg12
I8
sg13
VCicatrix
p3580
sg15
I1
sasa(dp3581
g2
S'Group B Streptococcal Infection is an entity.'
p3582
sg4
(lp3583
sg6
(lp3584
(dp3585
g9
I0
sg10
VC2020625
p3586
sg12
I31
sg13
VGroup B Streptococcal Infection
p3587
sg15
I4
sasa(dp3588
g2
S'Full lower lip is an entity.'
p3589
sg4
(lp3590
sg6
(lp3591
(dp3592
g9
I11
sg10
VC0264511
p3593
sg12
I3
sg13
Vlip
p3594
sg15
I1
sasa(dp3595
g2
S'acute myelomonoblastic leukemia is an entity.'
p3596
sg4
(lp3597
sg6
(lp3598
(dp3599
g9
I0
sg10
VC2062501
p3600
sg12
I31
sg13
Vacute myelomonoblastic leukemia
p3601
sg15
I3
sasa(dp3602
g2
S'Left Main Coronary Artery Stenosis is an entity.'
p3603
sg4
(lp3604
sg6
(lp3605
(dp3606
g9
I0
sg10
VC2062905
p3607
sg12
I34
sg13
VLeft Main Coronary Artery Stenosis
p3608
sg15
I5
sasa(dp3609
g2
S'Autoimmune Primary Adrenal Insufficiency is an entity.'
p3610
sg4
(lp3611
sg6
(lp3612
(dp3613
g9
I11
sg10
VC0001403
p3614
sg12
I29
sg13
VPrimary Adrenal Insufficiency
p3615
sg15
I3
sa(dp3616
g9
I0
sg10
VC0443146
p3617
sg12
I10
sg13
VAutoimmune
p3618
sg15
I1
sasa(dp3619
g2
S'Contractures of the interphalangeal joint of the thumb is an entity.'
p3620
sg4
(lp3621
sg6
(lp3622
(dp3623
g9
I0
sg10
VC0009917
p3624
sg12
I12
sg13
VContractures
p3625
sg15
I1
sasa(dp3626
g2
S'Acute colitis is an entity. \n'
p3627
sg4
(lp3628
sg6
(lp3629
(dp3630
g9
I6
sg10
VC0009319
p3631
sg12
I7
sg13
Vcolitis
p3632
sg15
I1
sasa(dp3633
g2
S'Bilateral vocal cord paralysis is an entity.'
p3634
sg4
(lp3635
sg6
(lp3636
(dp3637
g9
I10
sg10
VC0042928
p3638
sg12
I20
sg13
Vvocal cord paralysis
p3639
sg15
I3
sasa(dp3640
g2
S'Daytime somnolence is an entity.'
p3641
sg4
(lp3642
sg6
(lp3643
(dp3644
g9
I0
sg10
VC2219848
p3645
sg12
I18
sg13
VDaytime somnolence
p3646
sg15
I2
sasa(dp3647
g2
S'Hemoglobin Adverse Event is an entity.'
p3648
sg4
(lp3649
(dp3650
g9
I0
sg55
g66
sg12
I10
sg13
VHemoglobin
p3651
sg15
I1
sasg6
(lp3652
sa(dp3653
g2
S'Benign Mastocytoma is an entity.'
p3654
sg4
(lp3655
sg6
(lp3656
(dp3657
g9
I0
sg10
VC2242987
p3658
sg12
I18
sg13
VBenign Mastocytoma
p3659
sg15
I2
sasa(dp3660
g2
S'Chronic kidney disease stage 1 is an entity.'
p3661
sg4
(lp3662
sg6
(lp3663
(dp3664
g9
I0
sg10
VC2316401
p3665
sg12
I30
sg13
VChronic kidney disease stage 1
p3666
sg15
I5
sasa(dp3667
g2
S'Maduromycosis is an entity.'
p3668
sg4
(lp3669
sg6
(lp3670
(dp3671
g9
I0
sg10
VC2350621
p3672
sg12
I13
sg13
VMaduromycosis
p3673
sg15
I1
sasa(dp3674
g2
S'Systemic sclerosis [scleroderma] is an entity.'
p3675
sg4
(lp3676
sg6
(lp3677
(dp3678
g9
I20
sg10
VC0036421
p3679
sg12
I11
sg13
Vscleroderma
p3680
sg15
I1
sa(dp3681
g9
I0
sg10
VC0036421
p3682
sg12
I18
sg13
VSystemic sclerosis
p3683
sg15
I2
sasa(dp3684
g2
S'Plasma glucose concentration is an entity.'
p3685
sg4
(lp3686
sg6
(lp3687
sa(dp3688
g2
S'Hereditary hyperhomocysteinemia is an entity.'
p3689
sg4
(lp3690
sg6
(lp3691
(dp3692
g9
I0
sg10
VC2585350
p3693
sg12
I31
sg13
VHereditary hyperhomocysteinemia
p3694
sg15
I2
sasa(dp3695
g2
S'Hereditary antithrombin III deficiency is an entity. \n'
p3696
sg4
(lp3697
(dp3698
g9
I11
sg55
VP05546
p3699
sg12
I16
sg13
Vantithrombin III
p3700
sg15
I2
sasg6
(lp3701
(dp3702
g9
I0
sg10
VC2586031
p3703
sg12
I38
sg13
VHereditary antithrombin III deficiency
p3704
sg15
I4
sasa(dp3705
g2
S'Homozygous protein S deficiency is an entity.'
p3706
sg4
(lp3707
(dp3708
g9
I11
sg55
VP07225
p3709
sg12
I9
sg13
Vprotein S
p3710
sg15
I2
sasg6
(lp3711
(dp3712
g9
I0
sg10
VC2586160
p3713
sg12
I31
sg13
VHomozygous protein S deficiency
p3714
sg15
I4
sasa(dp3715
g2
S'Hereditary Renal Cell Carcinoma is an entity.'
p3716
sg4
(lp3717
sg6
(lp3718
(dp3719
g9
I0
sg10
VC2608055
p3720
sg12
I31
sg13
VHereditary Renal Cell Carcinoma
p3721
sg15
I4
sasa(dp3722
g2
S'Sticky platelet syndrome is an entity.'
p3723
sg4
(lp3724
sg6
(lp3725
(dp3726
g9
I0
sg10
VC2609046
p3727
sg12
I24
sg13
VSticky platelet syndrome
p3728
sg15
I3
sasa(dp3729
g2
S'EPILEPSY, PROGRESSIVE MYOCLONIC 3 is an entity.'
p3730
sg4
(lp3731
sg6
(lp3732
(dp3733
g9
I0
sg10
VC2673257
p3734
sg12
I33
sg13
VEPILEPSY, PROGRESSIVE MYOCLONIC 3
p3735
sg15
I4
sasa(dp3736
g2
S'Congenital localized absence of skin is an entity.'
p3737
sg4
(lp3738
sg6
(lp3739
sa(dp3740
g2
S'Cuboid-shaped vertebral bodies is an entity.'
p3741
sg4
(lp3742
sg6
(lp3743
sa(dp3744
g2
S'Brisk reflexes is an entity.'
p3745
sg4
(lp3746
sg6
(lp3747
sa(dp3748
g2
S'Vascular tortuosity is an entity.'
p3749
sg4
(lp3750
sg6
(lp3751
sa(dp3752
g2
S'BARDET-BIEDL SYNDROME 13 is an entity.'
p3753
sg4
(lp3754
sg6
(lp3755
(dp3756
g9
I0
sg10
VC2673873
p3757
sg12
I24
sg13
VBARDET-BIEDL SYNDROME 13
p3758
sg15
I3
sasa(dp3759
g2
S'Fundus atrophy is an entity. \n'
p3760
sg4
(lp3761
sg6
(lp3762
(dp3763
g9
I7
sg10
VC0333641
p3764
sg12
I7
sg13
Vatrophy
p3765
sg15
I1
sasa(dp3766
g2
S'Skin/Hair/Eye Pigmentation, Variation In, 7 is an entity.'
p3767
sg4
(lp3768
sg6
(lp3769
(dp3770
g9
I0
sg10
VC2674081
p3771
sg12
I43
sg13
VSkin/Hair/Eye Pigmentation, Variation In, 7
p3772
sg15
I5
sasa(dp3773
g2
S'Dwarfism, lethal micromelic is an entity.'
p3774
sg4
(lp3775
sg6
(lp3776
(dp3777
g9
I0
sg10
VC0013336
p3778
sg12
I8
sg13
VDwarfism
p3779
sg15
I1
sasa(dp3780
g2
S'NEUROMUSCULAR DISEASE, CONGENITAL, WITH UNIFORM TYPE 1 FIBER (disorder) is an entity.'
p3781
sg4
(lp3782
sg6
(lp3783
(dp3784
g9
I0
sg10
VC2674259
p3785
sg12
I60
sg13
VNEUROMUSCULAR DISEASE, CONGENITAL, WITH UNIFORM TYPE 1 FIBER
p3786
sg15
I8
sasa(dp3787
g2
S'Feeding difficulties in infancy is an entity.'
p3788
sg4
(lp3789
sg6
(lp3790
sa(dp3791
g2
S'ASTROCYTOMA, LOW-GRADE, SOMATIC is an entity.'
p3792
sg4
(lp3793
(dp3794
g9
I17
sg55
VP00390
p3795
sg12
I5
sg13
VGRADE
p3796
sg15
I1
sasg6
(lp3797
(dp3798
g9
I0
sg10
VC0004114
p3799
sg12
I11
sg13
VASTROCYTOMA
p3800
sg15
I1
sasa(dp3801
g2
S'LOEYS-DIETZ SYNDROME, TYPE 1B is an entity.'
p3802
sg4
(lp3803
sg6
(lp3804
(dp3805
g9
I0
sg10
VC2674876
p3806
sg12
I29
sg13
VLOEYS-DIETZ SYNDROME, TYPE 1B
p3807
sg15
I4
sasa(dp3808
g2
S'CLOPIDOGREL, POOR METABOLISM OF (disorder) is an entity.'
p3809
sg4
(lp3810
sg6
(lp3811
(dp3812
g9
I0
sg10
VC2674941
p3813
sg12
I31
sg13
VCLOPIDOGREL, POOR METABOLISM OF
p3814
sg15
I4
sasa(dp3815
g2
S'Chromosome 3q29 Deletion Syndrome is an entity.'
p3816
sg4
(lp3817
sg6
(lp3818
(dp3819
g9
I0
sg10
VC2674949
p3820
sg12
I33
sg13
VChromosome 3q29 Deletion Syndrome
p3821
sg15
I4
sasa(dp3822
g2
S'MICROVASCULAR COMPLICATIONS OF DIABETES, SUSCEPTIBILITY TO, 6 (finding) is an entity.'
p3823
sg4
(lp3824
sg6
(lp3825
(dp3826
g9
I31
sg10
VC0011849
p3827
sg12
I8
sg13
VDIABETES
p3828
sg15
I1
sasa(dp3829
g2
S'Inflammatory Bowel Disease 26 is an entity. \n'
p3830
sg4
(lp3831
sg6
(lp3832
(dp3833
g9
I0
sg10
VC2675249
p3834
sg12
I29
sg13
VInflammatory Bowel Disease 26
p3835
sg15
I4
sasa(dp3836
g2
S'Febrile Convulsions, Familial, 10 is an entity.'
p3837
sg4
(lp3838
sg6
(lp3839
(dp3840
g9
I0
sg10
VC0009952
p3841
sg12
I19
sg13
VFebrile Convulsions
p3842
sg15
I2
sasa(dp3843
g2
S'BODY MASS INDEX QUANTITATIVE TRAIT LOCUS 7 is an entity.'
p3844
sg4
(lp3845
(dp3846
g9
I0
sg55
VP35555
p3847
sg12
I42
sg13
VBODY MASS INDEX QUANTITATIVE TRAIT LOCUS 7
p3848
sg15
I7
sasg6
(lp3849
(dp3850
g9
I0
sg10
VC2675358
p3851
sg12
I42
sg13
VBODY MASS INDEX QUANTITATIVE TRAIT LOCUS 7
p3852
sg15
I7
sasa(dp3853
g2
S'USHER SYNDROME, TYPE IH (disorder) is an entity.'
p3854
sg4
(lp3855
sg6
(lp3856
(dp3857
g9
I0
sg10
VC2675458
p3858
sg12
I23
sg13
VUSHER SYNDROME, TYPE IH
p3859
sg15
I4
sasa(dp3860
g2
S'Adenylate Kinase Deficiency, Hemolytic Anemia Due To is an entity.'
p3861
sg4
(lp3862
sg6
(lp3863
(dp3864
g9
I0
sg10
VC2675459
p3865
sg12
I52
sg13
VAdenylate Kinase Deficiency, Hemolytic Anemia Due To
p3866
sg15
I7
sasa(dp3867
g2
S'MICROVASCULAR COMPLICATIONS OF DIABETES, SUSCEPTIBILITY TO, 3 (finding) is an entity.'
p3868
sg4
(lp3869
sg6
(lp3870
(dp3871
g9
I31
sg10
VC0011849
p3872
sg12
I8
sg13
VDIABETES
p3873
sg15
I1
sasa(dp3874
g2
S'Mental Retardation, Autosomal Dominant 3 is an entity.'
p3875
sg4
(lp3876
sg6
(lp3877
(dp3878
g9
I0
sg10
VC2675488
p3879
sg12
I40
sg13
VMental Retardation, Autosomal Dominant 3
p3880
sg15
I5
sasa(dp3881
g2
S'ADIPONECTIN, SERUM LEVEL OF, QUANTITATIVE TRAIT LOCUS 1 is an entity.'
p3882
sg4
(lp3883
(dp3884
g9
I13
sg55
g66
sg12
I42
sg13
VSERUM LEVEL OF, QUANTITATIVE TRAIT LOCUS 1
p3885
sg15
I7
sa(dp3886
g9
I0
sg55
g66
sg12
I11
sg13
VADIPONECTIN
p3887
sg15
I1
sasg6
(lp3888
(dp3889
g9
I0
sg10
VC2675517
p3890
sg12
I55
sg13
VADIPONECTIN, SERUM LEVEL OF, QUANTITATIVE TRAIT LOCUS 1
p3891
sg15
I8
sasa(dp3892
g2
S'Adiponectin Deficiency is an entity.'
p3893
sg4
(lp3894
(dp3895
g9
I0
sg55
g66
sg12
I11
sg13
VAdiponectin
p3896
sg15
I1
sasg6
(lp3897
(dp3898
g9
I0
sg10
VC2675518
p3899
sg12
I22
sg13
VAdiponectin Deficiency
p3900
sg15
I2
sasa(dp3901
g2
S'BENZENE TOXICITY, SUSCEPTIBILITY TO is an entity.'
p3902
sg4
(lp3903
sg6
(lp3904
sa(dp3905
g2
S'BODY MASS INDEX QUANTITATIVE TRAIT LOCUS 14 is an entity. \n'
p3906
sg4
(lp3907
(dp3908
g9
I0
sg55
VP35555
p3909
sg12
I43
sg13
VBODY MASS INDEX QUANTITATIVE TRAIT LOCUS 14
p3910
sg15
I7
sasg6
(lp3911
(dp3912
g9
I0
sg10
VC2675914
p3913
sg12
I43
sg13
VBODY MASS INDEX QUANTITATIVE TRAIT LOCUS 14
p3914
sg15
I7
sasa(dp3915
g2
S'Open operculum is an entity.'
p3916
sg4
(lp3917
sg6
(lp3918
sa(dp3919
g2
S'CILIARY DYSKINESIA, PRIMARY, 9 is an entity.'
p3920
sg4
(lp3921
sg6
(lp3922
(dp3923
g9
I0
sg10
VC2676235
p3924
sg12
I30
sg13
VCILIARY DYSKINESIA, PRIMARY, 9
p3925
sg15
I4
sasa(dp3926
g2
S'Prickle1-Related Progressive Myoclonus Epilepsy with Ataxia is an entity.'
p3927
sg4
(lp3928
(dp3929
g9
I0
sg55
g66
sg12
I8
sg13
VPrickle1
p3930
sg15
I1
sasg6
(lp3931
(dp3932
g9
I17
sg10
VC0751778
p3933
sg12
I30
sg13
VProgressive Myoclonus Epilepsy
p3934
sg15
I3
sa(dp3935
g9
I53
sg10
VC0004134
p3936
sg12
I6
sg13
VAtaxia
p3937
sg15
I1
sasa(dp3938
g2
S'Pontocerebellar Hypoplasia Type 2C is an entity.'
p3939
sg4
(lp3940
sg6
(lp3941
(dp3942
g9
I0
sg10
VC1261175
p3943
sg12
I26
sg13
VPontocerebellar Hypoplasia
p3944
sg15
I2
sasa(dp3945
g2
S'COWDEN-LIKE SYNDROME (disorder) is an entity.'
p3946
sg4
(lp3947
sg6
(lp3948
(dp3949
g9
I0
sg10
VC2676500
p3950
sg12
I20
sg13
VCOWDEN-LIKE SYNDROME
p3951
sg15
I2
sasa(dp3952
g2
S'Post-angioplasty coronary artery restenosis is an entity.'
p3953
sg4
(lp3954
sg6
(lp3955
(dp3956
g9
I17
sg10
VC0948480
p3957
sg12
I26
sg13
Vcoronary artery restenosis
p3958
sg15
I3
sasa(dp3959
g2
S'SPASTIC PARAPLEGIA 38, AUTOSOMAL DOMINANT (disorder) is an entity.'
p3960
sg4
(lp3961
sg6
(lp3962
(dp3963
g9
I0
sg10
VC2676732
p3964
sg12
I41
sg13
VSPASTIC PARAPLEGIA 38, AUTOSOMAL DOMINANT
p3965
sg15
I5
sasa(dp3966
g2
S'THYROID-STIMULATING HORMONE LEVEL QUANTITATIVE TRAIT LOCUS 1 is an entity.'
p3967
sg4
(lp3968
(dp3969
g9
I20
sg55
g66
sg12
I40
sg13
VHORMONE LEVEL QUANTITATIVE TRAIT LOCUS 1
p3970
sg15
I6
sasg6
(lp3971
(dp3972
g9
I0
sg10
VC2676758
p3973
sg12
I60
sg13
VTHYROID-STIMULATING HORMONE LEVEL QUANTITATIVE TRAIT LOCUS 1
p3974
sg15
I7
sasa(dp3975
g2
S'CD59 Deficiency is an entity.'
p3976
sg4
(lp3977
(dp3978
g9
I0
sg55
VP13987
p3979
sg12
I4
sg13
VCD59
p3980
sg15
I1
sasg6
(lp3981
(dp3982
g9
I0
sg10
VC2676767
p3983
sg12
I15
sg13
VCD59 Deficiency
p3984
sg15
I2
sasa(dp3985
g2
S'BODY MASS INDEX QUANTITATIVE TRAIT LOCUS 8 (disorder) is an entity. \n'
p3986
sg4
(lp3987
(dp3988
g9
I0
sg55
VP35555
p3989
sg12
I42
sg13
VBODY MASS INDEX QUANTITATIVE TRAIT LOCUS 8
p3990
sg15
I7
sasg6
(lp3991
(dp3992
g9
I0
sg10
VC2676933
p3993
sg12
I42
sg13
VBODY MASS INDEX QUANTITATIVE TRAIT LOCUS 8
p3994
sg15
I7
sasa(dp3995
g2
S'Ciliary Dyskinesia, Primary, 8 is an entity.'
p3996
sg4
(lp3997
sg6
(lp3998
(dp3999
g9
I0
sg10
VC2677085
p4000
sg12
I30
sg13
VCiliary Dyskinesia, Primary, 8
p4001
sg15
I4
sasa(dp4002
g2
S'CROUZON SYNDROME WITH ACANTHOSIS NIGRICANS (disorder) is an entity.'
p4003
sg4
(lp4004
sg6
(lp4005
(dp4006
g9
I0
sg10
VC2677099
p4007
sg12
I42
sg13
VCROUZON SYNDROME WITH ACANTHOSIS NIGRICANS
p4008
sg15
I5
sasa(dp4009
g2
S'SCOLIOSIS, IDIOPATHIC, SUSCEPTIBILITY TO, 4 (finding) is an entity.'
p4010
sg4
(lp4011
sg6
(lp4012
(dp4013
g9
I0
sg10
VC0595995
p4014
sg12
I21
sg13
VSCOLIOSIS, IDIOPATHIC
p4015
sg15
I2
sasa(dp4016
g2
S'Brain hypomyelination is an entity.'
p4017
sg4
(lp4018
sg6
(lp4019
(dp4020
g9
I6
sg10
VC0544820
p4021
sg12
I15
sg13
Vhypomyelination
p4022
sg15
I1
sasa(dp4023
g2
S'Chromosome 15q13.3 Microdeletion Syndrome is an entity.'
p4024
sg4
(lp4025
sg6
(lp4026
(dp4027
g9
I0
sg10
VC2677613
p4028
sg12
I41
sg13
VChromosome 15q13.3 Microdeletion Syndrome
p4029
sg15
I4
sasa(dp4030
g2
S'Rett Syndrome, Zappella Variant is an entity.'
p4031
sg4
(lp4032
sg6
(lp4033
(dp4034
g9
I0
sg10
VC2677682
p4035
sg12
I31
sg13
VRett Syndrome, Zappella Variant
p4036
sg15
I4
sasa(dp4037
g2
S'Craniofacioskeletal Syndrome is an entity.'
p4038
sg4
(lp4039
sg6
(lp4040
(dp4041
g9
I0
sg10
VC2678036
p4042
sg12
I28
sg13
VCraniofacioskeletal Syndrome
p4043
sg15
I2
sasa(dp4044
g2
S'Hoarse cry is an entity.'
p4045
sg4
(lp4046
sg6
(lp4047
(dp4048
g9
I0
sg10
VC0019825
p4049
sg12
I6
sg13
VHoarse
p4050
sg15
I1
sasa(dp4051
g2
S'Aortic Aneurysm, Familial Abdominal 3 is an entity.'
p4052
sg4
(lp4053
sg6
(lp4054
(dp4055
g9
I0
sg10
VC0003486
p4056
sg12
I15
sg13
VAortic Aneurysm
p4057
sg15
I2
sasa(dp4058
g2
S'CARDIOMYOPATHY, DILATED, 2A (disorder) is an entity. \n'
p4059
sg4
(lp4060
(dp4061
g9
I0
sg55
VP21941
p4062
sg12
I14
sg13
VCARDIOMYOPATHY
p4063
sg15
I1
sasg6
(lp4064
(dp4065
g9
I0
sg10
VC2678474
p4066
sg12
I27
sg13
VCARDIOMYOPATHY, DILATED, 2A
p4067
sg15
I3
sasa(dp4068
g2
S'Prostate Cancer, Hereditary, 12 is an entity.'
p4069
sg4
(lp4070
sg6
(lp4071
(dp4072
g9
I0
sg10
VC2678479
p4073
sg12
I31
sg13
VProstate Cancer, Hereditary, 12
p4074
sg15
I4
sasa(dp4075
g2
S'Gastrointestinal irritation is an entity.'
p4076
sg4
(lp4077
sg6
(lp4078
(dp4079
g9
I0
sg10
VC2697368
p4080
sg12
I27
sg13
VGastrointestinal irritation
p4081
sg15
I2
sasa(dp4082
g2
S'Loeys-Dietz Syndrome Type 1 is an entity.'
p4083
sg4
(lp4084
sg6
(lp4085
(dp4086
g9
I0
sg10
VC2697933
p4087
sg12
I27
sg13
VLoeys-Dietz Syndrome Type 1
p4088
sg15
I4
sasa(dp4089
g2
S'Cytokine Measurement is an entity.'
p4090
sg4
(lp4091
sg6
(lp4092
sa(dp4093
g2
S'Omenn Syndrome is an entity.'
p4094
sg4
(lp4095
sg6
(lp4096
(dp4097
g9
I0
sg10
VC1801959
p4098
sg12
I14
sg13
VOmenn Syndrome
p4099
sg15
I2
sasa(dp4100
g2
S'Arylsulfatase A Deficiency is an entity.'
p4101
sg4
(lp4102
(dp4103
g9
I0
sg55
VP15289
p4104
sg12
I15
sg13
VArylsulfatase A
p4105
sg15
I2
sasg6
(lp4106
(dp4107
g9
I0
sg10
VC0023522
p4108
sg12
I26
sg13
VArylsulfatase A Deficiency
p4109
sg15
I3
sasa(dp4110
g2
S'Poroma is an entity.'
p4111
sg4
(lp4112
sg6
(lp4113
(dp4114
g9
I0
sg10
VC2717981
p4115
sg12
I6
sg13
VPoroma
p4116
sg15
I1
sasa(dp4117
g2
S'Deficiency of Uroporphyrinogen III Synthase is an entity.'
p4118
sg4
(lp4119
(dp4120
g9
I14
sg55
VP10746
p4121
sg12
I29
sg13
VUroporphyrinogen III Synthase
p4122
sg15
I3
sasg6
(lp4123
(dp4124
g9
I0
sg10
VC2718078
p4125
sg12
I43
sg13
VDeficiency of Uroporphyrinogen III Synthase
p4126
sg15
I5
sasa(dp4127
g2
S'Nasal inflammation is an entity.'
p4128
sg4
(lp4129
sg6
(lp4130
(dp4131
g9
I0
sg10
VC2718128
p4132
sg12
I18
sg13
VNasal inflammation
p4133
sg15
I2
sasa(dp4134
g2
S'Executive dysfunction is an entity. \n'
p4135
sg4
(lp4136
sg6
(lp4137
(dp4138
g9
I0
sg10
VC2748208
p4139
sg12
I21
sg13
VExecutive dysfunction
p4140
sg15
I2
sasa(dp4141
g2
S'Orofacial Cleft 12 is an entity.'
p4142
sg4
(lp4143
sg6
(lp4144
(dp4145
g9
I0
sg10
VC2748505
p4146
sg12
I18
sg13
VOrofacial Cleft 12
p4147
sg15
I3
sasa(dp4148
g2
S'INTERLEUKIN 1 RECEPTOR ANTAGONIST DEFICIENCY is an entity.'
p4149
sg4
(lp4150
(dp4151
g9
I0
sg55
VP18510
p4152
sg12
I44
sg13
VINTERLEUKIN 1 RECEPTOR ANTAGONIST DEFICIENCY
p4153
sg15
I5
sasg6
(lp4154
(dp4155
g9
I0
sg10
VC2748507
p4156
sg12
I44
sg13
VINTERLEUKIN 1 RECEPTOR ANTAGONIST DEFICIENCY
p4157
sg15
I5
sasa(dp4158
g2
S'CARDIAC CONDUCTION DEFECT, NONSPECIFIC (disorder) is an entity.'
p4159
sg4
(lp4160
sg6
(lp4161
(dp4162
g9
I0
sg10
VC2748542
p4163
sg12
I38
sg13
VCARDIAC CONDUCTION DEFECT, NONSPECIFIC
p4164
sg15
I4
sasa(dp4165
g2
S'DEAFNESS, AUTOSOMAL RECESSIVE 71 (disorder) is an entity.'
p4166
sg4
(lp4167
sg6
(lp4168
(dp4169
g9
I0
sg10
VC2748554
p4170
sg12
I32
sg13
VDEAFNESS, AUTOSOMAL RECESSIVE 71
p4171
sg15
I4
sasa(dp4172
g2
S'Renal sodium wasting is an entity.'
p4173
sg4
(lp4174
sg6
(lp4175
(dp4176
g9
I13
sg10
VC0235394
p4177
sg12
I7
sg13
Vwasting
p4178
sg15
I1
sasa(dp4179
g2
S'JOUBERT SYNDROME 10 (disorder) is an entity.'
p4180
sg4
(lp4181
sg6
(lp4182
(dp4183
g9
I0
sg10
VC2749019
p4184
sg12
I19
sg13
VJOUBERT SYNDROME 10
p4185
sg15
I3
sasa(dp4186
g2
S'Mental Retardation, X-Linked, Znf711-Related is an entity.'
p4187
sg4
(lp4188
sg6
(lp4189
(dp4190
g9
I0
sg10
VC1136249
p4191
sg12
I28
sg13
VMental Retardation, X-Linked
p4192
sg15
I3
sasa(dp4193
g2
S'HEMOLYTIC UREMIC SYNDROME, ATYPICAL, SUSCEPTIBILITY TO, 1 is an entity.'
p4194
sg4
(lp4195
sg6
(lp4196
(dp4197
g9
I0
sg10
VC2931788
p4198
sg12
I35
sg13
VHEMOLYTIC UREMIC SYNDROME, ATYPICAL
p4199
sg15
I4
sasa(dp4200
g2
S'BRONCHIECTASIS WITH OR WITHOUT ELEVATED SWEAT CHLORIDE 1 is an entity.'
p4201
sg4
(lp4202
(dp4203
g9
I0
sg55
VP51168
p4204
sg12
I56
sg13
VBRONCHIECTASIS WITH OR WITHOUT ELEVATED SWEAT CHLORIDE 1
p4205
sg15
I8
sasg6
(lp4206
(dp4207
g9
I0
sg10
VC2749757
p4208
sg12
I56
sg13
VBRONCHIECTASIS WITH OR WITHOUT ELEVATED SWEAT CHLORIDE 1
p4209
sg15
I8
sasa(dp4210
g2
S'MITOCHONDRIAL DNA DEPLETION SYNDROME 8A (ENCEPHALOMYOPATHIC TYPE WITH RENAL TUBULOPATHY) is an entity. \n'
p4211
sg4
(lp4212
sg6
(lp4213
(dp4214
g9
I28
sg10
VC0039082
p4215
sg12
I8
sg13
VSYNDROME
p4216
sg15
I1
sa(dp4217
g9
I0
sg10
VC0342782
p4218
sg12
I27
sg13
VMITOCHONDRIAL DNA DEPLETION
p4219
sg15
I3
sasa(dp4220
g2
S'Spondylo-Megaepiphyseal-Metaphyseal Dysplasia is an entity.'
p4221
sg4
(lp4222
sg6
(lp4223
(dp4224
g9
I0
sg10
VC2750066
p4225
sg12
I45
sg13
VSpondylo-Megaepiphyseal-Metaphyseal Dysplasia
p4226
sg15
I2
sasa(dp4227
g2
S'Exudative Vitreoretinopathy 5 is an entity.'
p4228
sg4
(lp4229
sg6
(lp4230
(dp4231
g9
I0
sg10
VC2750079
p4232
sg12
I29
sg13
VExudative Vitreoretinopathy 5
p4233
sg15
I3
sasa(dp4234
g2
S'Diamond-Blackfan Anemia 9 is an entity.'
p4235
sg4
(lp4236
sg6
(lp4237
(dp4238
g9
I0
sg10
VC2750081
p4239
sg12
I25
sg13
VDiamond-Blackfan Anemia 9
p4240
sg15
I3
sasa(dp4241
g2
S'Cerebellar Ataxia, Mental Retardation, And Dysequilibrium Syndrome 2 is an entity.'
p4242
sg4
(lp4243
sg6
(lp4244
(dp4245
g9
I0
sg10
VC2750234
p4246
sg12
I68
sg13
VCerebellar Ataxia, Mental Retardation, And Dysequilibrium Syndrome 2
p4247
sg15
I8
sasa(dp4248
g2
S'Hypermanganesemia with Dystonia Polycythemia and Cirrhosis is an entity.'
p4249
sg4
(lp4250
sg6
(lp4251
(dp4252
g9
I0
sg10
VC2750442
p4253
sg12
I58
sg13
VHypermanganesemia with Dystonia Polycythemia and Cirrhosis
p4254
sg15
I6
sasa(dp4255
g2
S'CORNEAL DYSTROPHY, FUCHS ENDOTHELIAL, 4 is an entity.'
p4256
sg4
(lp4257
sg6
(lp4258
(dp4259
g9
I0
sg10
VC2750450
p4260
sg12
I39
sg13
VCORNEAL DYSTROPHY, FUCHS ENDOTHELIAL, 4
p4261
sg15
I5
sasa(dp4262
g2
S'CORNEAL DYSTROPHY, FUCHS ENDOTHELIAL, 3 is an entity.'
p4263
sg4
(lp4264
sg6
(lp4265
(dp4266
g9
I0
sg10
VC2750451
p4267
sg12
I39
sg13
VCORNEAL DYSTROPHY, FUCHS ENDOTHELIAL, 3
p4268
sg15
I5
sasa(dp4269
g2
S'COLORECTAL CANCER, HEREDITARY NONPOLYPOSIS, TYPE 8 is an entity.'
p4270
sg4
(lp4271
sg6
(lp4272
(dp4273
g9
I0
sg10
VC2750471
p4274
sg12
I50
sg13
VCOLORECTAL CANCER, HEREDITARY NONPOLYPOSIS, TYPE 8
p4275
sg15
I6
sasa(dp4276
g2
S'Cone-Rod Dystrophy 13 is an entity.'
p4277
sg4
(lp4278
(dp4279
g9
I0
sg55
g66
sg12
I21
sg13
VCone-Rod Dystrophy 13
p4280
sg15
I3
sasg6
(lp4281
(dp4282
g9
I0
sg10
VC2750720
p4283
sg12
I21
sg13
VCone-Rod Dystrophy 13
p4284
sg15
I3
sasa(dp4285
g2
S'CILIARY DYSKINESIA, PRIMARY, 13 is an entity. \n'
p4286
sg4
(lp4287
sg6
(lp4288
(dp4289
g9
I0
sg10
VC2750790
p4290
sg12
I31
sg13
VCILIARY DYSKINESIA, PRIMARY, 13
p4291
sg15
I4
sasa(dp4292
g2
S'Polymicrogyria With Optic Nerve Hypoplasia is an entity.'
p4293
sg4
(lp4294
sg6
(lp4295
(dp4296
g9
I0
sg10
VC2750798
p4297
sg12
I42
sg13
VPolymicrogyria With Optic Nerve Hypoplasia
p4298
sg15
I5
sasa(dp4299
g2
S'EPILEPSY, IDIOPATHIC GENERALIZED, SUSCEPTIBILITY TO, 9 is an entity.'
p4300
sg4
(lp4301
sg6
(lp4302
(dp4303
g9
I0
sg10
VC0270850
p4304
sg12
I32
sg13
VEPILEPSY, IDIOPATHIC GENERALIZED
p4305
sg15
I3
sasa(dp4306
g2
S'CHOROIDAL DYSTROPHY, CENTRAL AREOLAR 2 is an entity.'
p4307
sg4
(lp4308
sg6
(lp4309
(dp4310
g9
I0
sg10
VC2751290
p4311
sg12
I38
sg13
VCHOROIDAL DYSTROPHY, CENTRAL AREOLAR 2
p4312
sg15
I5
sasa(dp4313
g2
S'HEMOPHAGOCYTIC LYMPHOHISTIOCYTOSIS, FAMILIAL, 5 is an entity.'
p4314
sg4
(lp4315
sg6
(lp4316
(dp4317
g9
I0
sg10
VC2751293
p4318
sg12
I47
sg13
VHEMOPHAGOCYTIC LYMPHOHISTIOCYTOSIS, FAMILIAL, 5
p4319
sg15
I4
sasa(dp4320
g2
S'CANDIDIASIS, FAMILIAL, 1 is an entity.'
p4321
sg4
(lp4322
sg6
(lp4323
(dp4324
g9
I0
sg10
VC2751429
p4325
sg12
I24
sg13
VCANDIDIASIS, FAMILIAL, 1
p4326
sg15
I3
sasa(dp4327
g2
S'BRONCHIECTASIS WITH OR WITHOUT ELEVATED SWEAT CHLORIDE 2 is an entity.'
p4328
sg4
(lp4329
(dp4330
g9
I0
sg55
VP37088
p4331
sg12
I56
sg13
VBRONCHIECTASIS WITH OR WITHOUT ELEVATED SWEAT CHLORIDE 2
p4332
sg15
I8
sasg6
(lp4333
(dp4334
g9
I0
sg10
VC2751666
p4335
sg12
I56
sg13
VBRONCHIECTASIS WITH OR WITHOUT ELEVATED SWEAT CHLORIDE 2
p4336
sg15
I8
sasa(dp4337
g2
S'Myopathy, Myofibrillar, Bag3-Related is an entity.'
p4338
sg4
(lp4339
(dp4340
g9
I24
sg55
g66
sg12
I4
sg13
VBag3
p4341
sg15
I1
sasg6
(lp4342
(dp4343
g9
I0
sg10
VC2751831
p4344
sg12
I36
sg13
VMyopathy, Myofibrillar, Bag3-Related
p4345
sg15
I3
sasa(dp4346
g2
S'Congenital Lipomatous Overgrowth, Vascular Malformations, and Epidermal Nevi is an entity.'
p4347
sg4
(lp4348
sg6
(lp4349
(dp4350
g9
I0
sg10
VC2752042
p4351
sg12
I76
sg13
VCongenital Lipomatous Overgrowth, Vascular Malformations, and Epidermal Nevi
p4352
sg15
I8
sasa(dp4353
g2
S'Heterotopia, Periventricular, Associated With Chromosome 5q Deletion is an entity.'
p4354
sg4
(lp4355
sg6
(lp4356
(dp4357
g9
I0
sg10
VC2752071
p4358
sg12
I68
sg13
VHeterotopia, Periventricular, Associated With Chromosome 5q Deletion
p4359
sg15
I7
sasa(dp4360
g2
S'Interferon Alpha Measurement is an entity. \n'
p4361
sg4
(lp4362
(dp4363
g9
I0
sg55
VP01570
p4364
sg12
I16
sg13
VInterferon Alpha
p4365
sg15
I2
sasg6
(lp4366
sa(dp4367
g2
S'Cortical age-related cataract is an entity.'
p4368
sg4
(lp4369
sg6
(lp4370
(dp4371
g9
I0
sg10
VC2880562
p4372
sg12
I29
sg13
VCortical age-related cataract
p4373
sg15
I3
sasa(dp4374
g2
S'Macroalbuminuric diabetic nephropathy is an entity.'
p4375
sg4
(lp4376
sg6
(lp4377
(dp4378
g9
I0
sg10
VC2919365
p4379
sg12
I37
sg13
VMacroalbuminuric diabetic nephropathy
p4380
sg15
I3
sasa(dp4381
g2
S'Clinically isolated syndrome is an entity.'
p4382
sg4
(lp4383
sg6
(lp4384
(dp4385
g9
I0
sg10
VC2921627
p4386
sg12
I28
sg13
VClinically isolated syndrome
p4387
sg15
I3
sasa(dp4388
g2
S'Familial acanthosis nigricans is an entity.'
p4389
sg4
(lp4390
sg6
(lp4391
(dp4392
g9
I0
sg10
VC2930792
p4393
sg12
I29
sg13
VFamilial acanthosis nigricans
p4394
sg15
I3
sasa(dp4395
g2
S'Generalized elastolysis is an entity.'
p4396
sg4
(lp4397
sg6
(lp4398
(dp4399
g9
I0
sg10
VC2930812
p4400
sg12
I23
sg13
VGeneralized elastolysis
p4401
sg15
I2
sasa(dp4402
g2
S'Von willebrand factor, deficiency is an entity.'
p4403
sg4
(lp4404
(dp4405
g9
I0
sg55
VP04275
p4406
sg12
I21
sg13
VVon willebrand factor
p4407
sg15
I3
sasg6
(lp4408
(dp4409
g9
I0
sg10
VC2930849
p4410
sg12
I33
sg13
VVon willebrand factor, deficiency
p4411
sg15
I4
sasa(dp4412
g2
S'Cataract, congenital, with microcornea or slight microphthalmia is an entity.'
p4413
sg4
(lp4414
sg6
(lp4415
(dp4416
g9
I0
sg10
VC2930878
p4417
sg12
I63
sg13
VCataract, congenital, with microcornea or slight microphthalmia
p4418
sg15
I7
sasa(dp4419
g2
S'Kallmann syndrome, type 3, recessive is an entity.'
p4420
sg4
(lp4421
sg6
(lp4422
(dp4423
g9
I0
sg10
VC2930927
p4424
sg12
I36
sg13
VKallmann syndrome, type 3, recessive
p4425
sg15
I5
sasa(dp4426
g2
S'Acute erythroleukemia is an entity.'
p4427
sg4
(lp4428
sg6
(lp4429
(dp4430
g9
I0
sg10
VC2930974
p4431
sg12
I21
sg13
VAcute erythroleukemia
p4432
sg15
I2
sasa(dp4433
g2
S'Cystinosis, benign, nonnephropathic is an entity. \n'
p4434
sg4
(lp4435
sg6
(lp4436
(dp4437
g9
I0
sg10
VC2931013
p4438
sg12
I35
sg13
VCystinosis, benign, nonnephropathic
p4439
sg15
I3
sasa(dp4440
g2
S'Desmoplastic cerebral astrocytoma of infancy is an entity.'
p4441
sg4
(lp4442
sg6
(lp4443
(dp4444
g9
I0
sg10
VC2931068
p4445
sg12
I44
sg13
VDesmoplastic cerebral astrocytoma of infancy
p4446
sg15
I5
sasa(dp4447
g2
S'Collagenopathy, type 2 alpha 1 is an entity.'
p4448
sg4
(lp4449
(dp4450
g9
I16
sg55
VP25100
p4451
sg12
I14
sg13
Vtype 2 alpha 1
p4452
sg15
I4
sasg6
(lp4453
(dp4454
g9
I0
sg10
VC2931073
p4455
sg12
I30
sg13
VCollagenopathy, type 2 alpha 1
p4456
sg15
I5
sasa(dp4457
g2
S'Hydrolethalus syndrome is an entity.'
p4458
sg4
(lp4459
sg6
(lp4460
(dp4461
g9
I0
sg10
VC2931104
p4462
sg12
I22
sg13
VHydrolethalus syndrome
p4463
sg15
I2
sasa(dp4464
g2
S'Fetal megacystis is an entity.'
p4465
sg4
(lp4466
sg6
(lp4467
(dp4468
g9
I0
sg10
VC2931117
p4469
sg12
I16
sg13
VFetal megacystis
p4470
sg15
I2
sasa(dp4471
g2
S'Keratosis palmoplantaris striata 3 is an entity.'
p4472
sg4
(lp4473
sg6
(lp4474
(dp4475
g9
I0
sg10
VC2931123
p4476
sg12
I34
sg13
VKeratosis palmoplantaris striata 3
p4477
sg15
I4
sasa(dp4478
g2
S'VACTERL ASSOCIATION, X-LINKED, WITH OR WITHOUT HYDROCEPHALUS is an entity.'
p4479
sg4
(lp4480
sg6
(lp4481
(dp4482
g9
I0
sg10
VC1839115
p4483
sg12
I60
sg13
VVACTERL ASSOCIATION, X-LINKED, WITH OR WITHOUT HYDROCEPHALUS
p4484
sg15
I7
sasa(dp4485
g2
S'Amaurosis congenita of Leber, type 1 is an entity.'
p4486
sg4
(lp4487
sg6
(lp4488
(dp4489
g9
I0
sg10
VC2931258
p4490
sg12
I36
sg13
VAmaurosis congenita of Leber, type 1
p4491
sg15
I6
sasa(dp4492
g2
S'Yorifuji Okuno syndrome is an entity.'
p4493
sg4
(lp4494
sg6
(lp4495
(dp4496
g9
I0
sg10
VC2931296
p4497
sg12
I23
sg13
VYorifuji Okuno syndrome
p4498
sg15
I3
sasa(dp4499
g2
S'Leber congenital amaurosis, type 4 is an entity.'
p4500
sg4
(lp4501
sg6
(lp4502
(dp4503
g9
I0
sg10
VC2931387
p4504
sg12
I34
sg13
VLeber congenital amaurosis, type 4
p4505
sg15
I5
sasa(dp4506
g2
S'Oculocutaneous albinism type 3 is an entity. \n'
p4507
sg4
(lp4508
sg6
(lp4509
(dp4510
g9
I0
sg10
VC2931599
p4511
sg12
I30
sg13
VOculocutaneous albinism type 3
p4512
sg15
I4
sasa(dp4513
g2
S'Lactate dehydrogenase deficiency type A is an entity.'
p4514
sg4
(lp4515
(dp4516
g9
I0
sg55
VP49366
p4517
sg12
I21
sg13
VLactate dehydrogenase
p4518
sg15
I2
sasg6
(lp4519
(dp4520
g9
I0
sg10
VC2931743
p4521
sg12
I39
sg13
VLactate dehydrogenase deficiency type A
p4522
sg15
I5
sasa(dp4523
g2
S'Potassium aggravated myotonia is an entity.'
p4524
sg4
(lp4525
sg6
(lp4526
(dp4527
g9
I0
sg10
VC2931826
p4528
sg12
I29
sg13
VPotassium aggravated myotonia
p4529
sg15
I3
sasa(dp4530
g2
S'RDS - infants is an entity.'
p4531
sg4
(lp4532
sg6
(lp4533
(dp4534
g9
I0
sg10
VC2931829
p4535
sg12
I13
sg13
VRDS - infants
p4536
sg15
I3
sasa(dp4537
g2
S'Familial schizencephaly is an entity.'
p4538
sg4
(lp4539
sg6
(lp4540
(dp4541
g9
I0
sg10
VC2931870
p4542
sg12
I23
sg13
VFamilial schizencephaly
p4543
sg15
I2
sasa(dp4544
g2
S'Sarcoglycanopathies is an entity.'
p4545
sg4
(lp4546
sg6
(lp4547
(dp4548
g9
I0
sg10
VC2936331
p4549
sg12
I19
sg13
VSarcoglycanopathies
p4550
sg15
I1
sasa(dp4551
g2
S'Sex Chromosome Disorders of Sex Development is an entity.'
p4552
sg4
(lp4553
sg6
(lp4554
(dp4555
g9
I0
sg10
VC2936421
p4556
sg12
I43
sg13
VSex Chromosome Disorders of Sex Development
p4557
sg15
I6
sasa(dp4558
g2
S'Nodoventricular Accessory Pathway is an entity.'
p4559
sg4
(lp4560
sg6
(lp4561
(dp4562
g9
I0
sg10
VC2936459
p4563
sg12
I33
sg13
VNodoventricular Accessory Pathway
p4564
sg15
I3
sasa(dp4565
g2
S'Hyper-Immunoglobulin E Syndrome, Autosomal Dominant is an entity.'
p4566
sg4
(lp4567
(dp4568
g9
I0
sg55
g66
sg12
I20
sg13
VHyper-Immunoglobulin
p4569
sg15
I1
sasg6
(lp4570
(dp4571
g9
I0
sg10
VC2936739
p4572
sg12
I51
sg13
VHyper-Immunoglobulin E Syndrome, Autosomal Dominant
p4573
sg15
I5
sasa(dp4574
g2
S'Bardet-Biedl syndrome 4 (disorder) is an entity.'
p4575
sg4
(lp4576
sg6
(lp4577
(dp4578
g9
I0
sg10
VC2936864
p4579
sg12
I23
sg13
VBardet-Biedl syndrome 4
p4580
sg15
I3
sasa(dp4581
g2
S'Cerebral Hemorrhage is an entity. \n'
p4582
sg4
(lp4583
sg6
(lp4584
(dp4585
g9
I0
sg10
VC2937358
p4586
sg12
I19
sg13
VCerebral Hemorrhage
p4587
sg15
I2
sasa(dp4588
g2
S'Right ventricular failure is an entity.'
p4589
sg4
(lp4590
sg6
(lp4591
(dp4592
g9
I0
sg10
VC0235527
p4593
sg12
I25
sg13
VRight ventricular failure
p4594
sg15
I3
sasa(dp4595
g2
S'panic symptoms is an entity.'
p4596
sg4
(lp4597
sg6
(lp4598
(dp4599
g9
I0
sg10
VC2945698
p4600
sg12
I14
sg13
Vpanic symptoms
p4601
sg15
I2
sasa(dp4602
g2
S'Leukocytoclastic vasculitis is an entity.'
p4603
sg4
(lp4604
sg6
(lp4605
(dp4606
g9
I0
sg10
VC2973529
p4607
sg12
I27
sg13
VLeukocytoclastic vasculitis
p4608
sg15
I2
sasa(dp4609
g2
S'Immune reconstitution inflammatory syndrome [IRIS] is an entity.'
p4610
sg4
(lp4611
sg6
(lp4612
(dp4613
g9
I0
sg10
VC1619738
p4614
sg12
I43
sg13
VImmune reconstitution inflammatory syndrome
p4615
sg15
I4
sasa(dp4616
g2
S'Bisphosphonate-associated osteonecrosis is an entity.'
p4617
sg4
(lp4618
sg6
(lp4619
(dp4620
g9
I0
sg10
VC2986536
p4621
sg12
I39
sg13
VBisphosphonate-associated osteonecrosis
p4622
sg15
I2
sasa(dp4623
g2
S'Pancreatic Intraepithelial Neoplasia-1B is an entity.'
p4624
sg4
(lp4625
sg6
(lp4626
(dp4627
g9
I0
sg10
VC2987143
p4628
sg12
I39
sg13
VPancreatic Intraepithelial Neoplasia-1B
p4629
sg15
I3
sasa(dp4630
g2
S'Stage IV Renal Cell Cancer AJCC v7 is an entity.'
p4631
sg4
(lp4632
sg6
(lp4633
(dp4634
g9
I0
sg10
VC3146249
p4635
sg12
I34
sg13
VStage IV Renal Cell Cancer AJCC v7
p4636
sg15
I7
sasa(dp4637
g2
S'FRONTOTEMPORAL DEMENTIA WITH TDP43 INCLUSIONS, TARDBP-RELATED is an entity.'
p4638
sg4
(lp4639
(dp4640
g9
I47
sg55
g66
sg12
I6
sg13
VTARDBP
p4641
sg15
I1
sa(dp4642
g9
I15
sg55
g66
sg12
I30
sg13
VDEMENTIA WITH TDP43 INCLUSIONS
p4643
sg15
I4
sasg6
(lp4644
(dp4645
g9
I0
sg10
VC3150170
p4646
sg12
I61
sg13
VFRONTOTEMPORAL DEMENTIA WITH TDP43 INCLUSIONS, TARDBP-RELATED
p4647
sg15
I6
sasa(dp4648
g2
S'GLUT1 DEFICIENCY SYNDROME 1, AUTOSOMAL RECESSIVE is an entity.'
p4649
sg4
(lp4650
(dp4651
g9
I0
sg55
VP11166
p4652
sg12
I27
sg13
VGLUT1 DEFICIENCY SYNDROME 1
p4653
sg15
I4
sasg6
(lp4654
(dp4655
g9
I0
sg10
VC3149117
p4656
sg12
I48
sg13
VGLUT1 DEFICIENCY SYNDROME 1, AUTOSOMAL RECESSIVE
p4657
sg15
I6
sasa(dp4658
g2
S'DERMATOFIBROSIS LENTICULARIS DISSEMINATA, ISOLATED is an entity. \n'
p4659
sg4
(lp4660
sg6
(lp4661
(dp4662
g9
I0
sg10
VC0265514
p4663
sg12
I50
sg13
VDERMATOFIBROSIS LENTICULARIS DISSEMINATA, ISOLATED
p4664
sg15
I4
sasa(dp4665
g2
S'HYPERALPHALIPOPROTEINEMIA 1 is an entity.'
p4666
sg4
(lp4667
(dp4668
g9
I0
sg55
VP02656
p4669
sg12
I27
sg13
VHYPERALPHALIPOPROTEINEMIA 1
p4670
sg15
I2
sasg6
(lp4671
(dp4672
g9
I0
sg10
VC3149462
p4673
sg12
I27
sg13
VHYPERALPHALIPOPROTEINEMIA 1
p4674
sg15
I2
sasa(dp4675
g2
S'HIGH DENSITY LIPOPROTEIN CHOLESTEROL LEVEL QUANTITATIVE TRAIT LOCUS 10 is an entity.'
p4676
sg4
(lp4677
(dp4678
g9
I0
sg55
VP28845
p4679
sg12
I70
sg13
VHIGH DENSITY LIPOPROTEIN CHOLESTEROL LEVEL QUANTITATIVE TRAIT LOCUS 10
p4680
sg15
I9
sasg6
(lp4681
(dp4682
g9
I0
sg10
VC3149463
p4683
sg12
I70
sg13
VHIGH DENSITY LIPOPROTEIN CHOLESTEROL LEVEL QUANTITATIVE TRAIT LOCUS 10
p4684
sg15
I9
sasa(dp4685
g2
S'Nipples absent or rudimentary is an entity.'
p4686
sg4
(lp4687
sg6
(lp4688
sa(dp4689
g2
S'MUSCULAR DYSTROPHY-DYSTROGLYCANOPATHY (CONGENITAL WITH BRAIN AND EYE ANOMALIES), TYPE A, 6 is an entity.'
p4690
sg4
(lp4691
(dp4692
g9
I0
sg55
VP43034
p4693
sg12
I37
sg13
VMUSCULAR DYSTROPHY-DYSTROGLYCANOPATHY
p4694
sg15
I2
sasg6
(lp4695
(dp4696
g9
I0
sg10
VC3150414
p4697
sg12
I90
sg13
VMUSCULAR DYSTROPHY-DYSTROGLYCANOPATHY (CONGENITAL WITH BRAIN AND EYE ANOMALIES), TYPE A, 6
p4698
sg15
I11
sasa(dp4699
g2
S'Maturity-onset diabetes of the young, type 11 is an entity.'
p4700
sg4
(lp4701
sg6
(lp4702
(dp4703
g9
I0
sg10
VC3150618
p4704
sg12
I45
sg13
VMaturity-onset diabetes of the young, type 11
p4705
sg15
I7
sasa(dp4706
g2
S'BRACHYDACTYLY, TYPE E2 is an entity.'
p4707
sg4
(lp4708
sg6
(lp4709
(dp4710
g9
I0
sg10
VC3150644
p4711
sg12
I22
sg13
VBRACHYDACTYLY, TYPE E2
p4712
sg15
I3
sasa(dp4713
g2
S'FOXG1 syndrome is an entity.'
p4714
sg4
(lp4715
(dp4716
g9
I0
sg55
VP55316
p4717
sg12
I5
sg13
VFOXG1
p4718
sg15
I1
sasg6
(lp4719
(dp4720
g9
I6
sg10
VC0039082
p4721
sg12
I8
sg13
Vsyndrome
p4722
sg15
I1
sasa(dp4723
g2
S'EPILEPTIC ENCEPHALOPATHY, EARLY INFANTILE, 5 is an entity.'
p4724
sg4
(lp4725
sg6
(lp4726
(dp4727
g9
I0
sg10
VC3150731
p4728
sg12
I44
sg13
VEPILEPTIC ENCEPHALOPATHY, EARLY INFANTILE, 5
p4729
sg15
I5
sasa(dp4730
g2
S'LYMPHEDEMA, HEREDITARY, IC is an entity.'
p4731
sg4
(lp4732
sg6
(lp4733
(dp4734
g9
I0
sg10
VC3150732
p4735
sg12
I26
sg13
VLYMPHEDEMA, HEREDITARY, IC
p4736
sg15
I3
sasa(dp4737
g2
S'Antibody Deficiency due to Defect in CD19 is an entity. \n'
p4738
sg4
(lp4739
(dp4740
g9
I37
sg55
VP15391
p4741
sg12
I4
sg13
VCD19
p4742
sg15
I1
sasg6
(lp4743
sa(dp4744
g2
S'AGAMMAGLOBULINEMIA 2, AUTOSOMAL RECESSIVE is an entity.'
p4745
sg4
(lp4746
sg6
(lp4747
(dp4748
g9
I0
sg10
VC3150750
p4749
sg12
I41
sg13
VAGAMMAGLOBULINEMIA 2, AUTOSOMAL RECESSIVE
p4750
sg15
I4
sasa(dp4751
g2
S'ECTODERMAL DYSPLASIA-SYNDACTYLY SYNDROME 2 is an entity.'
p4752
sg4
(lp4753
sg6
(lp4754
(dp4755
g9
I0
sg10
VC3150809
p4756
sg12
I42
sg13
VECTODERMAL DYSPLASIA-SYNDACTYLY SYNDROME 2
p4757
sg15
I4
sasa(dp4758
g2
S'NEUROPATHY, HEREDITARY SENSORY AND AUTONOMIC, TYPE IC is an entity.'
p4759
sg4
(lp4760
sg6
(lp4761
(dp4762
g9
I0
sg10
VC3150896
p4763
sg12
I53
sg13
VNEUROPATHY, HEREDITARY SENSORY AND AUTONOMIC, TYPE IC
p4764
sg15
I7
sasa(dp4765
g2
S'SPASTIC PARAPLEGIA 48, AUTOSOMAL RECESSIVE is an entity.'
p4766
sg4
(lp4767
sg6
(lp4768
(dp4769
g9
I0
sg10
VC3150901
p4770
sg12
I42
sg13
VSPASTIC PARAPLEGIA 48, AUTOSOMAL RECESSIVE
p4771
sg15
I5
sasa(dp4772
g2
S'CONE-ROD DYSTROPHY 15 is an entity.'
p4773
sg4
(lp4774
(dp4775
g9
I0
sg55
g66
sg12
I21
sg13
VCONE-ROD DYSTROPHY 15
p4776
sg15
I3
sasg6
(lp4777
(dp4778
g9
I0
sg10
VC3150912
p4779
sg12
I21
sg13
VCONE-ROD DYSTROPHY 15
p4780
sg15
I3
sasa(dp4781
g2
S'HYPERALDOSTERONISM, FAMILIAL, TYPE III is an entity.'
p4782
sg4
(lp4783
sg6
(lp4784
(dp4785
g9
I0
sg10
VC3150933
p4786
sg12
I38
sg13
VHYPERALDOSTERONISM, FAMILIAL, TYPE III
p4787
sg15
I4
sasa(dp4788
g2
S'MICROPHTHALMIA, ISOLATED 7 is an entity.'
p4789
sg4
(lp4790
sg6
(lp4791
(dp4792
g9
I0
sg10
VC3150969
p4793
sg12
I26
sg13
VMICROPHTHALMIA, ISOLATED 7
p4794
sg15
I3
sasa(dp4795
g2
S'NOONAN SYNDROME 7 is an entity.'
p4796
sg4
(lp4797
sg6
(lp4798
(dp4799
g9
I0
sg10
VC3150970
p4800
sg12
I17
sg13
VNOONAN SYNDROME 7
p4801
sg15
I3
sasa(dp4802
g2
S'LEUKOENCEPHALOPATHY WITH DYSTONIA AND MOTOR NEUROPATHY is an entity.'
p4803
sg4
(lp4804
sg6
(lp4805
(dp4806
g9
I0
sg10
VC3150990
p4807
sg12
I54
sg13
VLEUKOENCEPHALOPATHY WITH DYSTONIA AND MOTOR NEUROPATHY
p4808
sg15
I6
sasa(dp4809
g2
S'Retinitis Pigmentosa 4 is an entity. \n'
p4810
sg4
(lp4811
sg6
(lp4812
(dp4813
g9
I0
sg10
VC3151001
p4814
sg12
I22
sg13
VRetinitis Pigmentosa 4
p4815
sg15
I3
sasa(dp4816
g2
S'MACULAR DEGENERATION, AGE-RELATED, 5 is an entity.'
p4817
sg4
(lp4818
sg6
(lp4819
(dp4820
g9
I0
sg10
VC3151063
p4821
sg12
I36
sg13
VMACULAR DEGENERATION, AGE-RELATED, 5
p4822
sg15
I4
sasa(dp4823
g2
S'COMPLEMENT COMPONENT 3 DEFICIENCY, AUTOSOMAL RECESSIVE is an entity.'
p4824
sg4
(lp4825
(dp4826
g9
I0
sg55
g66
sg12
I33
sg13
VCOMPLEMENT COMPONENT 3 DEFICIENCY
p4827
sg15
I4
sasg6
(lp4828
(dp4829
g9
I0
sg10
VC3151071
p4830
sg12
I54
sg13
VCOMPLEMENT COMPONENT 3 DEFICIENCY, AUTOSOMAL RECESSIVE
p4831
sg15
I6
sasa(dp4832
g2
S'OSTEOGENESIS IMPERFECTA, TYPE X is an entity.'
p4833
sg4
(lp4834
sg6
(lp4835
(dp4836
g9
I0
sg10
VC3151211
p4837
sg12
I31
sg13
VOSTEOGENESIS IMPERFECTA, TYPE X
p4838
sg15
I4
sasa(dp4839
g2
S'IMMUNODEFICIENCY DUE TO FICOLIN 3 DEFICIENCY is an entity.'
p4840
sg4
(lp4841
sg6
(lp4842
(dp4843
g9
I0
sg10
VC3151226
p4844
sg12
I44
sg13
VIMMUNODEFICIENCY DUE TO FICOLIN 3 DEFICIENCY
p4845
sg15
I6
sasa(dp4846
g2
S'FEBRILE SEIZURES, FAMILIAL, 3B is an entity.'
p4847
sg4
(lp4848
sg6
(lp4849
(dp4850
g9
I0
sg10
VC3151229
p4851
sg12
I30
sg13
VFEBRILE SEIZURES, FAMILIAL, 3B
p4852
sg15
I4
sasa(dp4853
g2
S'MYOPATHY, MYOFIBRILLAR, FATAL INFANTILE HYPERTONIC, ALPHA-B CRYSTALLIN-RELATED is an entity.'
p4854
sg4
(lp4855
(dp4856
g9
I52
sg55
VP22914
p4857
sg12
I18
sg13
VALPHA-B CRYSTALLIN
p4858
sg15
I2
sasg6
(lp4859
(dp4860
g9
I0
sg10
VC3151236
p4861
sg12
I78
sg13
VMYOPATHY, MYOFIBRILLAR, FATAL INFANTILE HYPERTONIC, ALPHA-B CRYSTALLIN-RELATED
p4862
sg15
I7
sasa(dp4863
g2
S'CARDIOMYOPATHY, FAMILIAL HYPERTROPHIC, 17 is an entity.'
p4864
sg4
(lp4865
sg6
(lp4866
(dp4867
g9
I0
sg10
VC3151264
p4868
sg12
I41
sg13
VCARDIOMYOPATHY, FAMILIAL HYPERTROPHIC, 17
p4869
sg15
I4
sasa(dp4870
g2
S'CARDIOMYOPATHY, FAMILIAL HYPERTROPHIC, 19 is an entity.'
p4871
sg4
(lp4872
sg6
(lp4873
(dp4874
g9
I0
sg10
VC3151266
p4875
sg12
I41
sg13
VCARDIOMYOPATHY, FAMILIAL HYPERTROPHIC, 19
p4876
sg15
I4
sasa(dp4877
g2
S'LIPODYSTROPHY, FAMILIAL PARTIAL, TYPE 4 is an entity.'
p4878
sg4
(lp4879
sg6
(lp4880
(dp4881
g9
I0
sg10
VC3151268
p4882
sg12
I39
sg13
VLIPODYSTROPHY, FAMILIAL PARTIAL, TYPE 4
p4883
sg15
I5
sasa(dp4884
g2
S'SPINOCEREBELLAR ATAXIA 32 is an entity. \n'
p4885
sg4
(lp4886
sg6
(lp4887
(dp4888
g9
I0
sg10
VC3151343
p4889
sg12
I25
sg13
VSPINOCEREBELLAR ATAXIA 32
p4890
sg15
I3
sasa(dp4891
g2
S'PITUITARY HORMONE DEFICIENCY, COMBINED, 6 is an entity.'
p4892
sg4
(lp4893
(dp4894
g9
I0
sg55
VP18509
p4895
sg12
I28
sg13
VPITUITARY HORMONE DEFICIENCY
p4896
sg15
I3
sasg6
(lp4897
(dp4898
g9
I0
sg10
VC3151440
p4899
sg12
I41
sg13
VPITUITARY HORMONE DEFICIENCY, COMBINED, 6
p4900
sg15
I5
sasa(dp4901
g2
S'CILIARY DYSKINESIA, PRIMARY, 16 is an entity.'
p4902
sg4
(lp4903
sg6
(lp4904
(dp4905
g9
I0
sg10
VC3151460
p4906
sg12
I31
sg13
VCILIARY DYSKINESIA, PRIMARY, 16
p4907
sg15
I4
sasa(dp4908
g2
S'MENTAL RETARDATION, AUTOSOMAL RECESSIVE 14 is an entity.'
p4909
sg4
(lp4910
sg6
(lp4911
(dp4912
g9
I0
sg10
VC3151462
p4913
sg12
I42
sg13
VMENTAL RETARDATION, AUTOSOMAL RECESSIVE 14
p4914
sg15
I5
sasa(dp4915
g2
S'ATRIAL FIBRILLATION, FAMILIAL, 10 is an entity.'
p4916
sg4
(lp4917
sg6
(lp4918
(dp4919
g9
I0
sg10
VC3151464
p4920
sg12
I33
sg13
VATRIAL FIBRILLATION, FAMILIAL, 10
p4921
sg15
I4
sasa(dp4922
g2
S'ROBINOW SYNDROME, AUTOSOMAL RECESSIVE, WITH BRACHY-SYN-POLYDACTYLY is an entity.'
p4923
sg4
(lp4924
(dp4925
g9
I39
sg55
VP17600
p4926
sg12
I27
sg13
VWITH BRACHY-SYN-POLYDACTYLY
p4927
sg15
I2
sasg6
(lp4928
(dp4929
g9
I0
sg10
VC3151610
p4930
sg12
I66
sg13
VROBINOW SYNDROME, AUTOSOMAL RECESSIVE, WITH BRACHY-SYN-POLYDACTYLY
p4931
sg15
I6
sasa(dp4932
g2
S'COMBINED OXIDATIVE PHOSPHORYLATION DEFICIENCY 6 is an entity.'
p4933
sg4
(lp4934
(dp4935
g9
I0
sg55
VP12235
p4936
sg12
I47
sg13
VCOMBINED OXIDATIVE PHOSPHORYLATION DEFICIENCY 6
p4937
sg15
I5
sasg6
(lp4938
(dp4939
g9
I0
sg10
VC3151753
p4940
sg12
I47
sg13
VCOMBINED OXIDATIVE PHOSPHORYLATION DEFICIENCY 6
p4941
sg15
I5
sasa(dp4942
g2
S'CONGENITAL HEART DEFECTS, MULTIPLE TYPES, 1, X-LINKED is an entity.'
p4943
sg4
(lp4944
sg6
(lp4945
(dp4946
g9
I0
sg10
VC0018798
p4947
sg12
I24
sg13
VCONGENITAL HEART DEFECTS
p4948
sg15
I3
sasa(dp4949
g2
S'3-methylglutaconicaciduria is an entity.'
p4950
sg4
(lp4951
sg6
(lp4952
sa(dp4953
g2
S'Profound intellectual disabilities is an entity.'
p4954
sg4
(lp4955
sg6
(lp4956
(dp4957
g9
I0
sg10
VC3161330
p4958
sg12
I34
sg13
VProfound intellectual disabilities
p4959
sg15
I3
sasa(dp4960
g2
S'Papillary Meningioma is an entity. \n'
p4961
sg4
(lp4962
sg6
(lp4963
(dp4964
g9
I0
sg10
VC3163622
p4965
sg12
I20
sg13
VPapillary Meningioma
p4966
sg15
I2
sasa(dp4967
g2
S'Abnormality of pulmonary valve is an entity.'
p4968
sg4
(lp4969
sg6
(lp4970
(dp4971
g9
I0
sg10
VC3164374
p4972
sg12
I30
sg13
VAbnormality of pulmonary valve
p4973
sg15
I4
sasa(dp4974
g2
S'Social Anhedonia is an entity.'
p4975
sg4
(lp4976
sg6
(lp4977
(dp4978
g9
I0
sg10
VC3178803
p4979
sg12
I16
sg13
VSocial Anhedonia
p4980
sg15
I2
sasa(dp4981
g2
S'Paraneoplastic Syndromes, Ocular is an entity.'
p4982
sg4
(lp4983
sg6
(lp4984
(dp4985
g9
I0
sg10
VC3178817
p4986
sg12
I32
sg13
VParaneoplastic Syndromes, Ocular
p4987
sg15
I3
sasa(dp4988
g2
S'Osteopetrosis Autosomal Dominant Type 2 is an entity.'
p4989
sg4
(lp4990
sg6
(lp4991
(dp4992
g9
I0
sg10
VC3179239
p4993
sg12
I39
sg13
VOsteopetrosis Autosomal Dominant Type 2
p4994
sg15
I5
sasa(dp4995
g2
S'Hypoventilation is an entity.'
p4996
sg4
(lp4997
sg6
(lp4998
(dp4999
g9
I0
sg10
VC0398353
p5000
sg12
I15
sg13
VHypoventilation
p5001
sg15
I1
sasa(dp5002
g2
S'Psychological Trauma is an entity.'
p5003
sg4
(lp5004
sg6
(lp5005
(dp5006
g9
I0
sg10
VC3203533
p5007
sg12
I20
sg13
VPsychological Trauma
p5008
sg15
I2
sasa(dp5009
g2
S'Myocardial Disorder is an entity.'
p5010
sg4
(lp5011
sg6
(lp5012
(dp5013
g9
I0
sg10
VC3241958
p5014
sg12
I19
sg13
VMyocardial Disorder
p5015
sg15
I2
sasa(dp5016
g2
S'Infection - suppurative is an entity.'
p5017
sg4
(lp5018
sg6
(lp5019
(dp5020
g9
I0
sg10
VC3249881
p5021
sg12
I23
sg13
VInfection - suppurative
p5022
sg15
I3
sasa(dp5023
g2
S'Autoimmune necrotizing myopathy is an entity.'
p5024
sg4
(lp5025
sg6
(lp5026
(dp5027
g9
I23
sg10
VC0026848
p5028
sg12
I8
sg13
Vmyopathy
p5029
sg15
I1
sa(dp5030
g9
I0
sg10
VC0443146
p5031
sg12
I10
sg13
VAutoimmune
p5032
sg15
I1
sasa(dp5033
g2
S'MUTYH-Associate Polyposis is an entity. \n'
p5034
sg4
(lp5035
sg6
(lp5036
(dp5037
g9
I0
sg10
VC3272841
p5038
sg12
I25
sg13
VMUTYH-Associate Polyposis
p5039
sg15
I2
sasa(dp5040
g2
S'Inflammatory Hepatocellular Adenoma is an entity.'
p5041
sg4
(lp5042
sg6
(lp5043
(dp5044
g9
I0
sg10
VC3273010
p5045
sg12
I35
sg13
VInflammatory Hepatocellular Adenoma
p5046
sg15
I3
sasa(dp5047
g2
S'Single Ventricle Defect is an entity.'
p5048
sg4
(lp5049
sg6
(lp5050
(dp5051
g9
I0
sg10
VC3274516
p5052
sg12
I23
sg13
VSingle Ventricle Defect
p5053
sg15
I3
sasa(dp5054
g2
S'One Vessel Coronary Disease is an entity.'
p5055
sg4
(lp5056
sg6
(lp5057
(dp5058
g9
I11
sg10
VC0010068
p5059
sg12
I16
sg13
VCoronary Disease
p5060
sg15
I2
sasa(dp5061
g2
S'Ragged-red fibers is an entity.'
p5062
sg4
(lp5063
sg6
(lp5064
sa(dp5065
g2
S'KABUKI SYNDROME 2 is an entity.'
p5066
sg4
(lp5067
sg6
(lp5068
(dp5069
g9
I0
sg10
VC3275495
p5070
sg12
I17
sg13
VKABUKI SYNDROME 2
p5071
sg15
I3
sasa(dp5072
g2
S'THROMBOCYTHEMIA 2 is an entity.'
p5073
sg4
(lp5074
sg6
(lp5075
(dp5076
g9
I0
sg10
VC3275998
p5077
sg12
I17
sg13
VTHROMBOCYTHEMIA 2
p5078
sg15
I2
sasa(dp5079
g2
S'PARAGANGLIOMAS 1 WITH SENSORINEURAL HEARING LOSS is an entity.'
p5080
sg4
(lp5081
(dp5082
g9
I0
sg55
g66
sg12
I16
sg13
VPARAGANGLIOMAS 1
p5083
sg15
I2
sasg6
(lp5084
(dp5085
g9
I22
sg10
VC0018784
p5086
sg12
I26
sg13
VSENSORINEURAL HEARING LOSS
p5087
sg15
I3
sa(dp5088
g9
I0
sg10
VC0030421
p5089
sg12
I16
sg13
VPARAGANGLIOMAS 1
p5090
sg15
I2
sasa(dp5091
g2
S'MALE GERM CELL TUMOR, SOMATIC is an entity.'
p5092
sg4
(lp5093
sg6
(lp5094
(dp5095
g9
I0
sg10
VC1336708
p5096
sg12
I20
sg13
VMALE GERM CELL TUMOR
p5097
sg15
I4
sasa(dp5098
g2
S'USHER SYNDROME, TYPE ID/F, DIGENIC is an entity.'
p5099
sg4
(lp5100
sg6
(lp5101
(dp5102
g9
I0
sg10
VC1832845
p5103
sg12
I23
sg13
VUSHER SYNDROME, TYPE ID
p5104
sg15
I4
sasa(dp5105
g2
S'OPTIC ATROPHY WITH OR WITHOUT DEAFNESS, OPHTHALMOPLEGIA, MYOPATHY, ATAXIA, AND NEUROPATHY is an entity. \n'
p5106
sg4
(lp5107
sg6
(lp5108
(dp5109
g9
I0
sg10
VC3276549
p5110
sg12
I89
sg13
VOPTIC ATROPHY WITH OR WITHOUT DEAFNESS, OPHTHALMOPLEGIA, MYOPATHY, ATAXIA, AND NEUROPATHY
p5111
sg15
I11
sasa(dp5112
g2
S'Absent or delayed speech development is an entity.'
p5113
sg4
(lp5114
sg6
(lp5115
(dp5116
g9
I10
sg10
VC0241210
p5117
sg12
I14
sg13
Vdelayed speech
p5118
sg15
I2
sasa(dp5119
g2
S'Stiff skin is an entity.'
p5120
sg4
(lp5121
sg6
(lp5122
sa(dp5123
g2
S'Straight eyebrows is an entity.'
p5124
sg4
(lp5125
sg6
(lp5126
sa(dp5127
g2
S'Congenital Bilateral Cataracts is an entity.'
p5128
sg4
(lp5129
sg6
(lp5130
(dp5131
g9
I11
sg10
VC0521707
p5132
sg12
I19
sg13
VBilateral Cataracts
p5133
sg15
I2
sasa(dp5134
g2
S'BERNARD-SOULIER SYNDROME, TYPE A2, AUTOSOMAL DOMINANT is an entity.'
p5135
sg4
(lp5136
sg6
(lp5137
(dp5138
g9
I0
sg10
VC3277076
p5139
sg12
I53
sg13
VBERNARD-SOULIER SYNDROME, TYPE A2, AUTOSOMAL DOMINANT
p5140
sg15
I6
sasa(dp5141
g2
S'Gastrointestinal hamartomatous polyps is an entity.'
p5142
sg4
(lp5143
sg6
(lp5144
(dp5145
g9
I17
sg10
VC0334092
p5146
sg12
I20
sg13
Vhamartomatous polyps
p5147
sg15
I2
sasa(dp5148
g2
S'Dilated ventricles (finding) is an entity.'
p5149
sg4
(lp5150
sg6
(lp5151
(dp5152
g9
I0
sg10
VC0264733
p5153
sg12
I18
sg13
VDilated ventricles
p5154
sg15
I2
sasa(dp5155
g2
S'Abdominal muscular hypoplasia is an entity.'
p5156
sg4
(lp5157
sg6
(lp5158
(dp5159
g9
I19
sg10
VC0243069
p5160
sg12
I10
sg13
Vhypoplasia
p5161
sg15
I1
sasa(dp5162
g2
S'HYPOTRICHOSIS 8 is an entity.'
p5163
sg4
(lp5164
sg6
(lp5165
(dp5166
g9
I0
sg10
VC3279470
p5167
sg12
I15
sg13
VHYPOTRICHOSIS 8
p5168
sg15
I2
sasa(dp5169
g2
S'Polymicrogyria, frontoparietal is an entity. \n'
p5170
sg4
(lp5171
sg6
(lp5172
(dp5173
g9
I0
sg10
VC0266464
p5174
sg12
I14
sg13
VPolymicrogyria
p5175
sg15
I1
sasa(dp5176
g2
S'ATRIAL FIBRILLATION, FAMILIAL, 12 is an entity.'
p5177
sg4
(lp5178
sg6
(lp5179
(dp5180
g9
I0
sg10
VC3279695
p5181
sg12
I33
sg13
VATRIAL FIBRILLATION, FAMILIAL, 12
p5182
sg15
I4
sasa(dp5183
g2
S'KEPPEN-LUBINSKY SYNDROME is an entity.'
p5184
sg4
(lp5185
sg6
(lp5186
(dp5187
g9
I0
sg10
VC3279800
p5188
sg12
I24
sg13
VKEPPEN-LUBINSKY SYNDROME
p5189
sg15
I2
sasa(dp5190
g2
S'CHITOTRIOSIDASE DEFICIENCY is an entity.'
p5191
sg4
(lp5192
(dp5193
g9
I0
sg55
g66
sg12
I26
sg13
VCHITOTRIOSIDASE DEFICIENCY
p5194
sg15
I2
sasg6
(lp5195
(dp5196
g9
I0
sg10
VC3279902
p5197
sg12
I26
sg13
VCHITOTRIOSIDASE DEFICIENCY
p5198
sg15
I2
sasa(dp5199
g2
S'Lactate Dehydrogenase B Deficiency is an entity.'
p5200
sg4
(lp5201
(dp5202
g9
I0
sg55
VP49366
p5203
sg12
I23
sg13
VLactate Dehydrogenase B
p5204
sg15
I3
sasg6
(lp5205
(dp5206
g9
I0
sg10
VC3279904
p5207
sg12
I34
sg13
VLactate Dehydrogenase B Deficiency
p5208
sg15
I4
sasa(dp5209
g2
S'IMMUNODEFICIENCY 21 is an entity.'
p5210
sg4
(lp5211
sg6
(lp5212
(dp5213
g9
I0
sg10
VC0021051
p5214
sg12
I16
sg13
VIMMUNODEFICIENCY
p5215
sg15
I1
sasa(dp5216
g2
S'JOUBERT SYNDROME 13 is an entity.'
p5217
sg4
(lp5218
sg6
(lp5219
(dp5220
g9
I0
sg10
VC3280031
p5221
sg12
I19
sg13
VJOUBERT SYNDROME 13
p5222
sg15
I3
sasa(dp5223
g2
S'RETINITIS PIGMENTOSA 61 is an entity.'
p5224
sg4
(lp5225
sg6
(lp5226
(dp5227
g9
I0
sg10
VC3280041
p5228
sg12
I23
sg13
VRETINITIS PIGMENTOSA 61
p5229
sg15
I3
sasa(dp5230
g2
S'LEBER CONGENITAL AMAUROSIS 16 is an entity.'
p5231
sg4
(lp5232
sg6
(lp5233
(dp5234
g9
I0
sg10
VC3280062
p5235
sg12
I29
sg13
VLEBER CONGENITAL AMAUROSIS 16
p5236
sg15
I4
sasa(dp5237
g2
S'Combined Malonic and Methylmalonic Aciduria is an entity.'
p5238
sg4
(lp5239
sg6
(lp5240
(dp5241
g9
I0
sg10
VC3280314
p5242
sg12
I43
sg13
VCombined Malonic and Methylmalonic Aciduria
p5243
sg15
I5
sasa(dp5244
g2
S'Platelet-Activating Factor Acetylhydrolase Deficiency is an entity. \n'
p5245
sg4
(lp5246
(dp5247
g9
I20
sg55
g66
sg12
I22
sg13
VFactor Acetylhydrolase
p5248
sg15
I2
sasg6
(lp5249
(dp5250
g9
I0
sg10
VC3280315
p5251
sg12
I53
sg13
VPlatelet-Activating Factor Acetylhydrolase Deficiency
p5252
sg15
I4
sasa(dp5253
g2
S'PITT-HOPKINS-LIKE SYNDROME 2 is an entity.'
p5254
sg4
(lp5255
sg6
(lp5256
(dp5257
g9
I0
sg10
VC3280479
p5258
sg12
I28
sg13
VPITT-HOPKINS-LIKE SYNDROME 2
p5259
sg15
I3
sasa(dp5260
g2
S'NEPHRONOPHTHISIS 13 is an entity.'
p5261
sg4
(lp5262
sg6
(lp5263
(dp5264
g9
I0
sg10
VC3280612
p5265
sg12
I19
sg13
VNEPHRONOPHTHISIS 13
p5266
sg15
I2
sasa(dp5267
g2
S'MYOPATHY, AREFLEXIA, RESPIRATORY DISTRESS, AND DYSPHAGIA, EARLY-ONSET is an entity.'
p5268
sg4
(lp5269
sg6
(lp5270
(dp5271
g9
I21
sg10
VC0476273
p5272
sg12
I20
sg13
VRESPIRATORY DISTRESS
p5273
sg15
I2
sa(dp5274
g9
I47
sg10
VC0011168
p5275
sg12
I9
sg13
VDYSPHAGIA
p5276
sg15
I1
sa(dp5277
g9
I0
sg10
VC0026848
p5278
sg12
I8
sg13
VMYOPATHY
p5279
sg15
I1
sasa(dp5280
g2
S'Cerebellar vermis aplasia or hypoplasia is an entity.'
p5281
sg4
(lp5282
sg6
(lp5283
(dp5284
g9
I0
sg10
VC1861732
p5285
sg12
I25
sg13
VCerebellar vermis aplasia
p5286
sg15
I3
sa(dp5287
g9
I29
sg10
VC0243069
p5288
sg12
I10
sg13
Vhypoplasia
p5289
sg15
I1
sasa(dp5290
g2
S'MICROPHTHALMIA, ISOLATED, WITH COLOBOMA 7 is an entity.'
p5291
sg4
(lp5292
sg6
(lp5293
(dp5294
g9
I0
sg10
VC3281027
p5295
sg12
I41
sg13
VMICROPHTHALMIA, ISOLATED, WITH COLOBOMA 7
p5296
sg15
I5
sasa(dp5297
g2
S'CHROMOSOME 17q12 DELETION SYNDROME is an entity.'
p5298
sg4
(lp5299
sg6
(lp5300
(dp5301
g9
I0
sg10
VC3281138
p5302
sg12
I34
sg13
VCHROMOSOME 17q12 DELETION SYNDROME
p5303
sg15
I4
sasa(dp5304
g2
S'HYDATIDIFORM MOLE, RECURRENT, 1 is an entity.'
p5305
sg4
(lp5306
sg6
(lp5307
(dp5308
g9
I0
sg10
VC3463897
p5309
sg12
I31
sg13
VHYDATIDIFORM MOLE, RECURRENT, 1
p5310
sg15
I4
sasa(dp5311
g2
S'Corticosterone Methyl Oxidase Type II Deficiency is an entity.'
p5312
sg4
(lp5313
sg6
(lp5314
(dp5315
g9
I0
sg10
VC3463917
p5316
sg12
I48
sg13
VCorticosterone Methyl Oxidase Type II Deficiency
p5317
sg15
I6
sasa(dp5318
g2
S'CARPAL TUNNEL SYNDROME, FAMILIAL is an entity.'
p5319
sg4
(lp5320
sg6
(lp5321
(dp5322
g9
I0
sg10
VC0007286
p5323
sg12
I22
sg13
VCARPAL TUNNEL SYNDROME
p5324
sg15
I3
sasa(dp5325
g2
S'fanconi anemia complementation group g is an entity. \n'
p5326
sg4
(lp5327
sg6
(lp5328
(dp5329
g9
I0
sg10
VC3469527
p5330
sg12
I38
sg13
Vfanconi anemia complementation group g
p5331
sg15
I5
sasa(dp5332
g2
S'Serrated adenocarcinoma is an entity.'
p5333
sg4
(lp5334
sg6
(lp5335
(dp5336
g9
I0
sg10
VC3472623
p5337
sg12
I23
sg13
VSerrated adenocarcinoma
p5338
sg15
I2
sasa(dp5339
g2
S'Neuroepithelioma, Peripheral is an entity.'
p5340
sg4
(lp5341
sg6
(lp5342
(dp5343
g9
I0
sg10
VC3489398
p5344
sg12
I28
sg13
VNeuroepithelioma, Peripheral
p5345
sg15
I2
sasa(dp5346
g2
S'Cone-Rod Dystrophy 2 is an entity.'
p5347
sg4
(lp5348
(dp5349
g9
I0
sg55
g66
sg12
I20
sg13
VCone-Rod Dystrophy 2
p5350
sg15
I3
sasg6
(lp5351
(dp5352
g9
I0
sg10
VC0035334
p5353
sg12
I20
sg13
VCone-Rod Dystrophy 2
p5354
sg15
I3
sasa(dp5355
g2
S'Pseudo-TORCH syndrome is an entity.'
p5356
sg4
(lp5357
sg6
(lp5358
(dp5359
g9
I0
sg10
VC3489725
p5360
sg12
I21
sg13
VPseudo-TORCH syndrome
p5361
sg15
I2
sasa(dp5362
g2
S'Hyper-Ige Recurrent Infection Syndrome, Autosomal Dominant is an entity.'
p5363
sg4
(lp5364
sg6
(lp5365
(dp5366
g9
I0
sg10
VC3489795
p5367
sg12
I58
sg13
VHyper-Ige Recurrent Infection Syndrome, Autosomal Dominant
p5368
sg15
I6
sasa(dp5369
g2
S'Lentiginosis Profusa is an entity.'
p5370
sg4
(lp5371
sg6
(lp5372
(dp5373
g9
I0
sg10
VC3492944
p5374
sg12
I20
sg13
VLentiginosis Profusa
p5375
sg15
I2
sasa(dp5376
g2
S'Prodromal Stage is an entity.'
p5377
sg4
(lp5378
sg6
(lp5379
(dp5380
g9
I0
sg10
VC3494361
p5381
sg12
I15
sg13
VProdromal Stage
p5382
sg15
I2
sasa(dp5383
g2
S'Autoimmune polyendocrinopathy syndrome, type 1 is an entity.'
p5384
sg4
(lp5385
sg6
(lp5386
(dp5387
g9
I0
sg10
VC3494489
p5388
sg12
I46
sg13
VAutoimmune polyendocrinopathy syndrome, type 1
p5389
sg15
I5
sasa(dp5390
g2
S'Homocarnosinase deficiency is an entity.'
p5391
sg4
(lp5392
sg6
(lp5393
(dp5394
g9
I0
sg10
VC0268632
p5395
sg12
I26
sg13
VHomocarnosinase deficiency
p5396
sg15
I2
sasa(dp5397
g2
S'Nonmedullary Thyroid Carcinoma is an entity. \n'
p5398
sg4
(lp5399
sg6
(lp5400
(dp5401
g9
I13
sg10
VC0549473
p5402
sg12
I17
sg13
VThyroid Carcinoma
p5403
sg15
I2
sasa(dp5404
g2
S'Noonan-Like Syndrome With Loose Anagen Hair is an entity.'
p5405
sg4
(lp5406
sg6
(lp5407
(dp5408
g9
I12
sg10
VC0039082
p5409
sg12
I8
sg13
VSyndrome
p5410
sg15
I1
sasa(dp5411
g2
S'Woolly Hair, Autosomal Recessive is an entity.'
p5412
sg4
(lp5413
sg6
(lp5414
(dp5415
g9
I0
sg10
VC0343073
p5416
sg12
I11
sg13
VWoolly Hair
p5417
sg15
I2
sasa(dp5418
g2
S'Mixed dementia is an entity.'
p5419
sg4
(lp5420
sg6
(lp5421
(dp5422
g9
I6
sg10
VC0497327
p5423
sg12
I8
sg13
Vdementia
p5424
sg15
I1
sasa(dp5425
g2
S'Renal dysplasia is an entity.'
p5426
sg4
(lp5427
sg6
(lp5428
(dp5429
g9
I0
sg10
VC0266313
p5430
sg12
I15
sg13
VRenal dysplasia
p5431
sg15
I2
sasa(dp5432
g2
S'SPASTIC PARAPLEGIA 54, AUTOSOMAL RECESSIVE is an entity.'
p5433
sg4
(lp5434
sg6
(lp5435
(dp5436
g9
I0
sg10
VC0037772
p5437
sg12
I18
sg13
VSPASTIC PARAPLEGIA
p5438
sg15
I2
sasa(dp5439
g2
S'NEPHRONOPHTHISIS 15 is an entity.'
p5440
sg4
(lp5441
sg6
(lp5442
(dp5443
g9
I0
sg10
VC0687120
p5444
sg12
I16
sg13
VNEPHRONOPHTHISIS
p5445
sg15
I1
sasa(dp5446
g2
S'Aminoacylase 2 Deficiency is an entity.'
p5447
sg4
(lp5448
(dp5449
g9
I0
sg55
VP45381
p5450
sg12
I14
sg13
VAminoacylase 2
p5451
sg15
I2
sasg6
(lp5452
(dp5453
g9
I0
sg10
VC0206307
p5454
sg12
I25
sg13
VAminoacylase 2 Deficiency
p5455
sg15
I3
sasa(dp5456
g2
S'Retinal thinning is an entity.'
p5457
sg4
(lp5458
sg6
(lp5459
sa(dp5460
g2
S'PEROXISOME BIOGENESIS DISORDER 2A (ZELLWEGER) is an entity.'
p5461
sg4
(lp5462
sg6
(lp5463
sa(dp5464
g2
S'Digital anomalies is an entity. \n'
p5465
sg4
(lp5466
sg6
(lp5467
sa(dp5468
g2
S'POLYMICROGYRIA, SYMMETRIC OR ASYMMETRIC is an entity.'
p5469
sg4
(lp5470
(dp5471
g9
I16
sg55
VP50583
p5472
sg12
I9
sg13
VSYMMETRIC
p5473
sg15
I1
sasg6
(lp5474
(dp5475
g9
I0
sg10
VC0266464
p5476
sg12
I14
sg13
VPOLYMICROGYRIA
p5477
sg15
I1
sasa(dp5478
g2
S'HYPOGONADOTROPIC HYPOGONADISM 4 WITH OR WITHOUT ANOSMIA is an entity.'
p5479
sg4
(lp5480
(dp5481
g9
I0
sg55
g66
sg12
I55
sg13
VHYPOGONADOTROPIC HYPOGONADISM 4 WITH OR WITHOUT ANOSMIA
p5482
sg15
I7
sasg6
(lp5483
(dp5484
g9
I48
sg10
VC0003126
p5485
sg12
I7
sg13
VANOSMIA
p5486
sg15
I1
sa(dp5487
g9
I0
sg10
VC0022735
p5488
sg12
I29
sg13
VHYPOGONADOTROPIC HYPOGONADISM
p5489
sg15
I2
sasa(dp5490
g2
S'HYPEREKPLEXIA 2 is an entity.'
p5491
sg4
(lp5492
sg6
(lp5493
(dp5494
g9
I0
sg10
VC0234166
p5495
sg12
I13
sg13
VHYPEREKPLEXIA
p5496
sg15
I1
sasa(dp5497
g2
S'MUSCULAR DYSTROPHY-DYSTROGLYCANOPATHY (CONGENITAL WITH BRAIN AND EYE ANOMALIES), TYPE A, 7 is an entity.'
p5498
sg4
(lp5499
(dp5500
g9
I0
sg55
VP43034
p5501
sg12
I37
sg13
VMUSCULAR DYSTROPHY-DYSTROGLYCANOPATHY
p5502
sg15
I2
sasg6
(lp5503
(dp5504
g9
I0
sg10
VC0026850
p5505
sg12
I18
sg13
VMUSCULAR DYSTROPHY
p5506
sg15
I2
sasa(dp5507
g2
S'GLUCOCORTICOID DEFICIENCY 4 is an entity.'
p5508
sg4
(lp5509
sg6
(lp5510
(dp5511
g9
I0
sg10
VC1955741
p5512
sg12
I25
sg13
VGLUCOCORTICOID DEFICIENCY
p5513
sg15
I2
sasa(dp5514
g2
S'3-METHYLGLUTACONIC ACIDURIA WITH DEAFNESS, ENCEPHALOPATHY, AND LEIGH-LIKE SYNDROME is an entity.'
p5515
sg4
(lp5516
sg6
(lp5517
(dp5518
g9
I0
sg10
VC0342727
p5519
sg12
I27
sg13
V3-METHYLGLUTACONIC ACIDURIA
p5520
sg15
I2
sa(dp5521
g9
I33
sg10
VC0011053
p5522
sg12
I8
sg13
VDEAFNESS
p5523
sg15
I1
sa(dp5524
g9
I74
sg10
VC0039082
p5525
sg12
I8
sg13
VSYNDROME
p5526
sg15
I1
sa(dp5527
g9
I43
sg10
VC0085584
p5528
sg12
I14
sg13
VENCEPHALOPATHY
p5529
sg15
I1
sasa(dp5530
g2
S'BASAL CELL CARCINOMA, SUSCEPTIBILITY TO, 7 is an entity.'
p5531
sg4
(lp5532
sg6
(lp5533
(dp5534
g9
I0
sg10
VC0007117
p5535
sg12
I20
sg13
VBASAL CELL CARCINOMA
p5536
sg15
I3
sasa(dp5537
g2
S'METHYLMALONIC ACIDURIA AND HOMOCYSTINURIA, cblJ TYPE is an entity.'
p5538
sg4
(lp5539
sg6
(lp5540
(dp5541
g9
I0
sg10
VC0268583
p5542
sg12
I22
sg13
VMETHYLMALONIC ACIDURIA
p5543
sg15
I2
sa(dp5544
g9
I27
sg10
VC0019880
p5545
sg12
I14
sg13
VHOMOCYSTINURIA
p5546
sg15
I1
sasa(dp5547
g2
S'PEROXISOME BIOGENESIS DISORDER 7B is an entity.'
p5548
sg4
(lp5549
sg6
(lp5550
sa(dp5551
g2
S'PEROXISOME BIOGENESIS DISORDER 11B is an entity. \n'
p5552
sg4
(lp5553
sg6
(lp5554
sa(dp5555
g2
S'ICHTHYOSIS, CONGENITAL, AUTOSOMAL RECESSIVE 9 is an entity.'
p5556
sg4
(lp5557
sg6
(lp5558
(dp5559
g9
I0
sg10
VC0020758
p5560
sg12
I10
sg13
VICHTHYOSIS
p5561
sg15
I1
sasa(dp5562
g2
S'ICHTHYOSIS, CONGENITAL, AUTOSOMAL RECESSIVE 10 is an entity.'
p5563
sg4
(lp5564
sg6
(lp5565
(dp5566
g9
I0
sg10
VC0020758
p5567
sg12
I10
sg13
VICHTHYOSIS
p5568
sg15
I1
sasa(dp5569
g2
S'MICROCEPHALY 10, PRIMARY, AUTOSOMAL RECESSIVE is an entity.'
p5570
sg4
(lp5571
sg6
(lp5572
(dp5573
g9
I0
sg10
VC0025958
p5574
sg12
I12
sg13
VMICROCEPHALY
p5575
sg15
I1
sasa(dp5576
g2
S'COWDEN SYNDROME 3 is an entity.'
p5577
sg4
(lp5578
sg6
(lp5579
(dp5580
g9
I0
sg10
VC0018553
p5581
sg12
I15
sg13
VCOWDEN SYNDROME
p5582
sg15
I2
sasa(dp5583
g2
S'UROFACIAL SYNDROME 2 is an entity.'
p5584
sg4
(lp5585
sg6
(lp5586
(dp5587
g9
I0
sg10
VC0403555
p5588
sg12
I18
sg13
VUROFACIAL SYNDROME
p5589
sg15
I2
sasa(dp5590
g2
S'IMMUNODEFICIENCY 11 is an entity.'
p5591
sg4
(lp5592
sg6
(lp5593
(dp5594
g9
I0
sg10
VC0021051
p5595
sg12
I16
sg13
VIMMUNODEFICIENCY
p5596
sg15
I1
sasa(dp5597
g2
S'Congenital Bleeding Disorder is an entity.'
p5598
sg4
(lp5599
sg6
(lp5600
(dp5601
g9
I11
sg10
VC0005779
p5602
sg12
I17
sg13
VBleeding Disorder
p5603
sg15
I2
sasa(dp5604
g2
S'Placental Malformation is an entity.'
p5605
sg4
(lp5606
sg6
(lp5607
(dp5608
g9
I10
sg10
VC0000768
p5609
sg12
I12
sg13
VMalformation
p5610
sg15
I1
sasa(dp5611
g2
S'Luminal A Breast Carcinoma is an entity.'
p5612
sg4
(lp5613
sg6
(lp5614
(dp5615
g9
I10
sg10
VC0678222
p5616
sg12
I16
sg13
VBreast Carcinoma
p5617
sg15
I2
sasa(dp5618
g2
S'Basal-Like Breast Carcinoma is an entity. \n'
p5619
sg4
(lp5620
sg6
(lp5621
(dp5622
g9
I11
sg10
VC0678222
p5623
sg12
I16
sg13
VBreast Carcinoma
p5624
sg15
I2
sasa(dp5625
g2
S'Static encephalopathy is an entity.'
p5626
sg4
(lp5627
sg6
(lp5628
(dp5629
g9
I7
sg10
VC0085584
p5630
sg12
I14
sg13
Vencephalopathy
p5631
sg15
I1
sasa(dp5632
g2
S'Allergic sensitization is an entity.'
p5633
sg4
(lp5634
sg6
(lp5635
sa(dp5636
g2
S'Secondary hypothyroidism is an entity.'
p5637
sg4
(lp5638
sg6
(lp5639
(dp5640
g9
I0
sg10
VC0271789
p5641
sg12
I24
sg13
VSecondary hypothyroidism
p5642
sg15
I2
sasa(dp5643
g2
S'Intracranial glioma is an entity.'
p5644
sg4
(lp5645
sg6
(lp5646
(dp5647
g9
I0
sg10
VC0349661
p5648
sg12
I19
sg13
VIntracranial glioma
p5649
sg15
I2
sasa(dp5650
g2
S'Ovarian low malignant potential tumour is an entity.'
p5651
sg4
(lp5652
sg6
(lp5653
(dp5654
g9
I0
sg10
VC0496920
p5655
sg12
I38
sg13
VOvarian low malignant potential tumour
p5656
sg15
I5
sasa(dp5657
g2
S'Circling behavior is an entity.'
p5658
sg4
(lp5659
sg6
(lp5660
(dp5661
g9
I0
sg10
VC0231706
p5662
sg12
I8
sg13
VCircling
p5663
sg15
I1
sasa(dp5664
g2
S'Round cell tumor is an entity.'
p5665
sg4
(lp5666
sg6
(lp5667
(dp5668
g9
I11
sg10
VC0027651
p5669
sg12
I5
sg13
Vtumor
p5670
sg15
I1
sasa(dp5671
g2
S'Sodium concentration in urine above normal is an entity.'
p5672
sg4
(lp5673
sg6
(lp5674
sa(dp5675
g2
S'GLYCOGEN STORAGE DISEASE IXa1 is an entity.'
p5676
sg4
(lp5677
sg6
(lp5678
(dp5679
g9
I0
sg10
VC0017919
p5680
sg12
I24
sg13
VGLYCOGEN STORAGE DISEASE
p5681
sg15
I3
sasa(dp5682
g2
S'3-Methylglutaconic Aciduria is an entity. \n'
p5683
sg4
(lp5684
sg6
(lp5685
(dp5686
g9
I0
sg10
VC0342727
p5687
sg12
I27
sg13
V3-Methylglutaconic Aciduria
p5688
sg15
I2
sasa(dp5689
g2
S'Precapillary pulmonary hypertension is an entity.'
p5690
sg4
(lp5691
sg6
(lp5692
(dp5693
g9
I13
sg10
VC0020542
p5694
sg12
I22
sg13
Vpulmonary hypertension
p5695
sg15
I2
sasa(dp5696
g2
S'Ulcerative colitis in remission is an entity.'
p5697
sg4
(lp5698
sg6
(lp5699
(dp5700
g9
I0
sg10
VC0009324
p5701
sg12
I18
sg13
VUlcerative colitis
p5702
sg15
I2
sa(dp5703
g9
I22
sg10
VC0687702
p5704
sg12
I9
sg13
Vremission
p5705
sg15
I1
sasa(dp5706
g2
S'Short lower third of face is an entity.'
p5707
sg4
(lp5708
sg6
(lp5709
(dp5710
g9
I21
sg10
VC3160739
p5711
sg12
I4
sg13
Vface
p5712
sg15
I1
sasa(dp5713
g2
S'Intraosseous mucoepidermoid carcinoma is an entity.'
p5714
sg4
(lp5715
sg6
(lp5716
(dp5717
g9
I13
sg10
VC0206694
p5718
sg12
I24
sg13
Vmucoepidermoid carcinoma
p5719
sg15
I2
sasa(dp5720
g2
S'Familial Acute Myeloid Leukemia with Mutated Cebpa is an entity.'
p5721
sg4
(lp5722
sg6
(lp5723
(dp5724
g9
I9
sg10
VC2826178
p5725
sg12
I41
sg13
VAcute Myeloid Leukemia with Mutated Cebpa
p5726
sg15
I6
sasa(dp5727
g2
S'Reactive airway disease is an entity.'
p5728
sg4
(lp5729
sg6
(lp5730
(dp5731
g9
I0
sg10
VC0302862
p5732
sg12
I23
sg13
VReactive airway disease
p5733
sg15
I3
sasa(dp5734
g2
S'Fibromyxosarcoma is an entity.'
p5735
sg4
(lp5736
sg6
(lp5737
(dp5738
g9
I0
sg10
VC0334454
p5739
sg12
I16
sg13
VFibromyxosarcoma
p5740
sg15
I1
sasa(dp5741
g2
S'CANDIDIASIS, FAMILIAL, 8 is an entity.'
p5742
sg4
(lp5743
sg6
(lp5744
(dp5745
g9
I0
sg10
VC0006840
p5746
sg12
I11
sg13
VCANDIDIASIS
p5747
sg15
I1
sasa(dp5748
g2
S'LEFT VENTRICULAR NONCOMPACTION 10 is an entity.'
p5749
sg4
(lp5750
sg6
(lp5751
(dp5752
g9
I0
sg10
VC1960469
p5753
sg12
I30
sg13
VLEFT VENTRICULAR NONCOMPACTION
p5754
sg15
I3
sasa(dp5755
g2
S'RENAL-HEPATIC-PANCREATIC DYSPLASIA 1 is an entity. \n'
p5756
sg4
(lp5757
sg6
(lp5758
(dp5759
g9
I0
sg10
VC2673883
p5760
sg12
I34
sg13
VRENAL-HEPATIC-PANCREATIC DYSPLASIA
p5761
sg15
I2
sasa(dp5762
g2
S'CATARACT, CONGENITAL, WITH LATE-ONSET CORNEAL DYSTROPHY is an entity.'
p5763
sg4
(lp5764
sg6
(lp5765
(dp5766
g9
I38
sg10
VC0010036
p5767
sg12
I17
sg13
VCORNEAL DYSTROPHY
p5768
sg15
I2
sa(dp5769
g9
I0
sg10
VC0009691
p5770
sg12
I20
sg13
VCATARACT, CONGENITAL
p5771
sg15
I2
sasa(dp5772
g2
S'CATARACT 30 is an entity.'
p5773
sg4
(lp5774
sg6
(lp5775
(dp5776
g9
I0
sg10
VC0086543
p5777
sg12
I8
sg13
VCATARACT
p5778
sg15
I1
sasa(dp5779
g2
S'FOVEAL HYPOPLASIA 1 is an entity.'
p5780
sg4
(lp5781
sg6
(lp5782
(dp5783
g9
I7
sg10
VC0243069
p5784
sg12
I10
sg13
VHYPOPLASIA
p5785
sg15
I1
sasa(dp5786
g2
S'PRECOCIOUS PUBERTY, CENTRAL, 1 is an entity.'
p5787
sg4
(lp5788
sg6
(lp5789
(dp5790
g9
I0
sg10
VC0342543
p5791
sg12
I27
sg13
VPRECOCIOUS PUBERTY, CENTRAL
p5792
sg15
I3
sasa(dp5793
g2
S'ANEMIA, HYPOCHROMIC MICROCYTIC, WITH IRON OVERLOAD 1 is an entity.'
p5794
sg4
(lp5795
sg6
(lp5796
(dp5797
g9
I0
sg10
VC2673913
p5798
sg12
I50
sg13
VANEMIA, HYPOCHROMIC MICROCYTIC, WITH IRON OVERLOAD
p5799
sg15
I6
sasa(dp5800
g2
S'BARDET-BIEDL SYNDROME 18 is an entity.'
p5801
sg4
(lp5802
(dp5803
g9
I0
sg55
g66
sg12
I24
sg13
VBARDET-BIEDL SYNDROME 18
p5804
sg15
I3
sasg6
(lp5805
(dp5806
g9
I0
sg10
VC0752166
p5807
sg12
I21
sg13
VBARDET-BIEDL SYNDROME
p5808
sg15
I2
sasa(dp5809
g2
S'Ectopic calcification is an entity.'
p5810
sg4
(lp5811
sg6
(lp5812
sa(dp5813
g2
S'DEAFNESS AND MYOPIA is an entity.'
p5814
sg4
(lp5815
sg6
(lp5816
(dp5817
g9
I13
sg10
VC0027092
p5818
sg12
I6
sg13
VMYOPIA
p5819
sg15
I1
sa(dp5820
g9
I0
sg10
VC0011053
p5821
sg12
I8
sg13
VDEAFNESS
p5822
sg15
I1
sasa(dp5823
g2
S'Laryngotracheal stenosis is an entity.'
p5824
sg4
(lp5825
sg6
(lp5826
(dp5827
g9
I16
sg10
VC0947637
p5828
sg12
I8
sg13
Vstenosis
p5829
sg15
I1
sasa(dp5830
g2
S'Osteomyelitis due to immunodeficiency is an entity. \n'
p5831
sg4
(lp5832
sg6
(lp5833
(dp5834
g9
I21
sg10
VC0021051
p5835
sg12
I16
sg13
Vimmunodeficiency
p5836
sg15
I1
sa(dp5837
g9
I0
sg10
VC0029443
p5838
sg12
I13
sg13
VOsteomyelitis
p5839
sg15
I1
sasa(dp5840
g2
S'CONGENITAL SHORT BOWEL SYNDROME, X-LINKED is an entity.'
p5841
sg4
(lp5842
sg6
(lp5843
(dp5844
g9
I11
sg10
VC0036992
p5845
sg12
I20
sg13
VSHORT BOWEL SYNDROME
p5846
sg15
I3
sasa(dp5847
g2
S'CEREBELLAR ATAXIA, DEAFNESS, AND NARCOLEPSY, AUTOSOMAL DOMINANT is an entity.'
p5848
sg4
(lp5849
sg6
(lp5850
(dp5851
g9
I0
sg10
VC1858804
p5852
sg12
I43
sg13
VCEREBELLAR ATAXIA, DEAFNESS, AND NARCOLEPSY
p5853
sg15
I5
sasa(dp5854
g2
S'CATARACT 23 is an entity.'
p5855
sg4
(lp5856
sg6
(lp5857
(dp5858
g9
I0
sg10
VC0086543
p5859
sg12
I8
sg13
VCATARACT
p5860
sg15
I1
sasa(dp5861
g2
S'Nemaline rods is an entity.'
p5862
sg4
(lp5863
sg6
(lp5864
sa(dp5865
g2
S'Breathing dysregulation is an entity.'
p5866
sg4
(lp5867
sg6
(lp5868
sa(dp5869
g2
S'CHROMOSOME 17p13.3, CENTROMERIC, DUPLICATION SYNDROME is an entity.'
p5870
sg4
(lp5871
sg6
(lp5872
(dp5873
g9
I33
sg10
VC1705960
p5874
sg12
I11
sg13
VDUPLICATION
p5875
sg15
I1
sa(dp5876
g9
I45
sg10
VC0039082
p5877
sg12
I8
sg13
VSYNDROME
p5878
sg15
I1
sasa(dp5879
g2
S'CORTICAL DYSPLASIA, COMPLEX, WITH OTHER BRAIN MALFORMATIONS 1 is an entity.'
p5880
sg4
(lp5881
sg6
(lp5882
(dp5883
g9
I0
sg10
VC3279670
p5884
sg12
I59
sg13
VCORTICAL DYSPLASIA, COMPLEX, WITH OTHER BRAIN MALFORMATIONS
p5885
sg15
I7
sasa(dp5886
g2
S'Hepatitis, chronic, due to Cryptosporidium infection is an entity.'
p5887
sg4
(lp5888
sg6
(lp5889
(dp5890
g9
I0
sg10
VC0019189
p5891
sg12
I18
sg13
VHepatitis, chronic
p5892
sg15
I2
sa(dp5893
g9
I27
sg10
VC0010418
p5894
sg12
I25
sg13
VCryptosporidium infection
p5895
sg15
I2
sasa(dp5896
g2
S'CEREBELLAR ATAXIA, MENTAL RETARDATION, AND DYSEQUILIBRIUM SYNDROME 4 is an entity.'
p5897
sg4
(lp5898
sg6
(lp5899
(dp5900
g9
I0
sg10
VC0007758
p5901
sg12
I17
sg13
VCEREBELLAR ATAXIA
p5902
sg15
I2
sa(dp5903
g9
I43
sg10
VC0394006
p5904
sg12
I23
sg13
VDYSEQUILIBRIUM SYNDROME
p5905
sg15
I2
sa(dp5906
g9
I19
sg10
VC0025362
p5907
sg12
I18
sg13
VMENTAL RETARDATION
p5908
sg15
I2
sasa(dp5909
g2
S'CARDIOFACIOCUTANEOUS SYNDROME 3 is an entity. \n'
p5910
sg4
(lp5911
(dp5912
g9
I0
sg55
VP15056
p5913
sg12
I31
sg13
VCARDIOFACIOCUTANEOUS SYNDROME 3
p5914
sg15
I3
sasg6
(lp5915
(dp5916
g9
I0
sg10
VC1275081
p5917
sg12
I29
sg13
VCARDIOFACIOCUTANEOUS SYNDROME
p5918
sg15
I2
sasa(dp5919
g2
S'ESTROGEN RESISTANCE is an entity.'
p5920
sg4
(lp5921
sg6
(lp5922
(dp5923
g9
I0
sg10
VC1851467
p5924
sg12
I19
sg13
VESTROGEN RESISTANCE
p5925
sg15
I2
sasa(dp5926
g2
S'SPERMATOGENIC FAILURE 12 is an entity.'
p5927
sg4
(lp5928
sg6
(lp5929
sa(dp5930
g2
S'MICROCEPHALY 11, PRIMARY, AUTOSOMAL RECESSIVE is an entity.'
p5931
sg4
(lp5932
sg6
(lp5933
(dp5934
g9
I0
sg10
VC0025958
p5935
sg12
I12
sg13
VMICROCEPHALY
p5936
sg15
I1
sasa(dp5937
g2
S'MYOPIA 23, AUTOSOMAL RECESSIVE is an entity.'
p5938
sg4
(lp5939
sg6
(lp5940
(dp5941
g9
I0
sg10
VC0027092
p5942
sg12
I6
sg13
VMYOPIA
p5943
sg15
I1
sasa(dp5944
g2
S'AORTIC ANEURYSM, FAMILIAL THORACIC 8 is an entity.'
p5945
sg4
(lp5946
sg6
(lp5947
(dp5948
g9
I0
sg10
VC0345050
p5949
sg12
I34
sg13
VAORTIC ANEURYSM, FAMILIAL THORACIC
p5950
sg15
I4
sasa(dp5951
g2
S'EPILEPTIC ENCEPHALOPATHY, EARLY INFANTILE, 17 is an entity.'
p5952
sg4
(lp5953
sg6
(lp5954
(dp5955
g9
I0
sg10
VC0543888
p5956
sg12
I24
sg13
VEPILEPTIC ENCEPHALOPATHY
p5957
sg15
I2
sasa(dp5958
g2
S'NEUROPATHY, HEREDITARY SENSORY AND AUTONOMIC, TYPE VII is an entity.'
p5959
sg4
(lp5960
sg6
(lp5961
(dp5962
g9
I0
sg10
VC0699739
p5963
sg12
I30
sg13
VNEUROPATHY, HEREDITARY SENSORY
p5964
sg15
I3
sasa(dp5965
g2
S'NEPHROTIC SYNDROME, TYPE 9 is an entity.'
p5966
sg4
(lp5967
sg6
(lp5968
(dp5969
g9
I0
sg10
VC0027726
p5970
sg12
I18
sg13
VNEPHROTIC SYNDROME
p5971
sg15
I2
sasa(dp5972
g2
S'SPASTIC PARAPLEGIA 72, AUTOSOMAL DOMINANT is an entity.'
p5973
sg4
(lp5974
sg6
(lp5975
(dp5976
g9
I0
sg10
VC0037772
p5977
sg12
I18
sg13
VSPASTIC PARAPLEGIA
p5978
sg15
I2
sasa(dp5979
g2
S'SHORT-RIB THORACIC DYSPLASIA 10 WITH OR WITHOUT POLYDACTYLY is an entity. \n'
p5980
sg4
(lp5981
(dp5982
g9
I0
sg55
VP10071
p5983
sg12
I59
sg13
VSHORT-RIB THORACIC DYSPLASIA 10 WITH OR WITHOUT POLYDACTYLY
p5984
sg15
I8
sasg6
(lp5985
(dp5986
g9
I19
sg10
VC0334044
p5987
sg12
I9
sg13
VDYSPLASIA
p5988
sg15
I1
sa(dp5989
g9
I10
sg10
VC0729233
p5990
sg12
I8
sg13
VTHORACIC
p5991
sg15
I1
sa(dp5992
g9
I48
sg10
VC0152427
p5993
sg12
I11
sg13
VPOLYDACTYLY
p5994
sg15
I1
sasa(dp5995
g2
S'CARBONIC ANHYDRASE VA DEFICIENCY, HYPERAMMONEMIA DUE TO is an entity.'
p5996
sg4
(lp5997
sg6
(lp5998
(dp5999
g9
I34
sg10
VC0220994
p6000
sg12
I14
sg13
VHYPERAMMONEMIA
p6001
sg15
I1
sasa(dp6002
g2
S'Loneliness in adolescence is an entity.'
p6003
sg4
(lp6004
sg6
(lp6005
sa(dp6006
g2
S'Learning disabled is an entity.'
p6007
sg4
(lp6008
sg6
(lp6009
sa(dp6010
g2
S'Nephrotic syndrome in children is an entity.'
p6011
sg4
(lp6012
sg6
(lp6013
(dp6014
g9
I0
sg10
VC0027726
p6015
sg12
I18
sg13
VNephrotic syndrome
p6016
sg15
I2
sasa(dp6017
g2
S'Multiple sclerosis in children is an entity.'
p6018
sg4
(lp6019
sg6
(lp6020
(dp6021
g9
I0
sg10
VC0026769
p6022
sg12
I18
sg13
VMultiple sclerosis
p6023
sg15
I2
sasa(dp6024
g2
S'Hearing impaired children is an entity.'
p6025
sg4
(lp6026
sg6
(lp6027
(dp6028
g9
I8
sg10
VC0684336
p6029
sg12
I8
sg13
Vimpaired
p6030
sg15
I1
sasa(dp6031
g2
S'Celiac disease in children is an entity.'
p6032
sg4
(lp6033
sg6
(lp6034
(dp6035
g9
I0
sg10
VC0007570
p6036
sg12
I14
sg13
VCeliac disease
p6037
sg15
I2
sasa(dp6038
g2
S'High-functioning autism is an entity.'
p6039
sg4
(lp6040
sg6
(lp6041
(dp6042
g9
I17
sg10
VC0004352
p6043
sg12
I6
sg13
Vautism
p6044
sg15
I1
sasa(dp6045
g2
S'Severe Congenital Microcephaly is an entity.'
p6046
sg4
(lp6047
sg6
(lp6048
(dp6049
g9
I18
sg10
VC0025958
p6050
sg12
I12
sg13
VMicrocephaly
p6051
sg15
I1
sasa(dp6052
g2
S'Idiopathic glomerulonephritis is an entity. \n'
p6053
sg4
(lp6054
sg6
(lp6055
(dp6056
g9
I11
sg10
VC0017658
p6057
sg12
I18
sg13
Vglomerulonephritis
p6058
sg15
I1
sasa(dp6059
g2
S'Familial hyperalphalipoproteinemia is an entity.'
p6060
sg4
(lp6061
sg6
(lp6062
(dp6063
g9
I9
sg10
VC0342883
p6064
sg12
I25
sg13
Vhyperalphalipoproteinemia
p6065
sg15
I1
sasa(dp6066
g2
S'Inflammatory dermatosis is an entity.'
p6067
sg4
(lp6068
sg6
(lp6069
(dp6070
g9
I13
sg10
VC0037274
p6071
sg12
I10
sg13
Vdermatosis
p6072
sg15
I1
sasa(dp6073
g2
S'Chromophobe carcinoma is an entity.'
p6074
sg4
(lp6075
sg6
(lp6076
(dp6077
g9
I0
sg10
VC1266042
p6078
sg12
I21
sg13
VChromophobe carcinoma
p6079
sg15
I2
sasa(dp6080
g2
S'Keratoglobus is an entity.'
p6081
sg4
(lp6082
sg6
(lp6083
(dp6084
g9
I0
sg10
VC0344530
p6085
sg12
I12
sg13
VKeratoglobus
p6086
sg15
I1
sasa(dp6087
g2
S'Central Apnea is an entity.'
p6088
sg4
(lp6089
sg6
(lp6090
(dp6091
g9
I0
sg10
VC0520680
p6092
sg12
I13
sg13
VCentral Apnea
p6093
sg15
I2
sasa(dp6094
g2
S'Failure to thrive in infant is an entity.'
p6095
sg4
(lp6096
sg6
(lp6097
(dp6098
g9
I0
sg10
VC0015544
p6099
sg12
I27
sg13
VFailure to thrive in infant
p6100
sg15
I5
sasa(dp6101
g2
S'Intraspinal Neoplasm is an entity.'
p6102
sg4
(lp6103
sg6
(lp6104
(dp6105
g9
I0
sg10
VC0037939
p6106
sg12
I20
sg13
VIntraspinal Neoplasm
p6107
sg15
I2
sasa(dp6108
g2
S'HUMAN PAPILLOMAVIRUS TYPE 18 INTEGRATION SITE 1 is an entity.'
p6109
sg4
(lp6110
(dp6111
g9
I21
sg55
g66
sg12
I26
sg13
VTYPE 18 INTEGRATION SITE 1
p6112
sg15
I5
sasg6
(lp6113
sa(dp6114
g2
S'GLYCOGEN CONTENT IN SKELETAL MUSCLE, INCREASED is an entity.'
p6115
sg4
(lp6116
sg6
(lp6117
sa(dp6118
g2
S'Cacosmia is an entity. \n'
p6119
sg4
(lp6120
sg6
(lp6121
(dp6122
g9
I0
sg10
VC0235287
p6123
sg12
I8
sg13
VCacosmia
p6124
sg15
I1
sasa(dp6125
g2
S'SPINOCEREBELLAR ATAXIA 35 is an entity.'
p6126
sg4
(lp6127
sg6
(lp6128
(dp6129
g9
I0
sg10
VC0087012
p6130
sg12
I22
sg13
VSPINOCEREBELLAR ATAXIA
p6131
sg15
I2
sasa(dp6132
g2
S'Frontotemporal Dementia With Motor Neuron Disease is an entity.'
p6133
sg4
(lp6134
sg6
(lp6135
(dp6136
g9
I0
sg10
VC0338451
p6137
sg12
I23
sg13
VFrontotemporal Dementia
p6138
sg15
I2
sa(dp6139
g9
I29
sg10
VC0085084
p6140
sg12
I20
sg13
VMotor Neuron Disease
p6141
sg15
I3
sasa(dp6142
g2
S'Glomerulopathy with fibronectin deposits is an entity.'
p6143
sg4
(lp6144
sg6
(lp6145
(dp6146
g9
I0
sg10
VC1866075
p6147
sg12
I40
sg13
VGlomerulopathy with fibronectin deposits
p6148
sg15
I4
sasa(dp6149
g2
S'Tumor Necrosis Factor Receptor 1-Associated Periodic Syndrome is an entity.'
p6150
sg4
(lp6151
(dp6152
g9
I0
sg55
VP01375
p6153
sg12
I32
sg13
VTumor Necrosis Factor Receptor 1
p6154
sg15
I5
sasg6
(lp6155
(dp6156
g9
I44
sg10
VC0585274
p6157
sg12
I17
sg13
VPeriodic Syndrome
p6158
sg15
I2
sa(dp6159
g9
I0
sg10
VC0333516
p6160
sg12
I14
sg13
VTumor Necrosis
p6161
sg15
I2
sasa(dp6162
g2
S'DEAFNESS, AUTOSOMAL DOMINANT 65 is an entity.'
p6163
sg4
(lp6164
sg6
(lp6165
(dp6166
g9
I0
sg10
VC0011053
p6167
sg12
I8
sg13
VDEAFNESS
p6168
sg15
I1
sasa(dp6169
g2
S'Ovarian Hyperandrogenism is an entity.'
p6170
sg4
(lp6171
sg6
(lp6172
(dp6173
g9
I8
sg10
VC0206081
p6174
sg12
I16
sg13
VHyperandrogenism
p6175
sg15
I1
sasa(dp6176
g2
S'PITUITARY ADENOMA, GROWTH HORMONE-SECRETING, 2 is an entity.'
p6177
sg4
(lp6178
sg6
(lp6179
(dp6180
g9
I0
sg10
VC0346302
p6181
sg12
I43
sg13
VPITUITARY ADENOMA, GROWTH HORMONE-SECRETING
p6182
sg15
I4
sasa(dp6183
g2
S'Bronchial carcinoid is an entity.'
p6184
sg4
(lp6185
sg6
(lp6186
(dp6187
g9
I10
sg10
VC0007095
p6188
sg12
I9
sg13
Vcarcinoid
p6189
sg15
I1
sasa(dp6190
g2
S'IMMUNODEFICIENCY 29 is an entity.'
p6191
sg4
(lp6192
sg6
(lp6193
(dp6194
g9
I0
sg10
VC0021051
p6195
sg12
I16
sg13
VIMMUNODEFICIENCY
p6196
sg15
I1
sasa(dp6197
g2
S'DESBUQUOIS DYSPLASIA 2 is an entity. \n'
p6198
sg4
(lp6199
sg6
(lp6200
(dp6201
g9
I0
sg10
VC0432242
p6202
sg12
I20
sg13
VDESBUQUOIS DYSPLASIA
p6203
sg15
I2
sasa(dp6204
g2
S'IMMUNODEFICIENCY 23 is an entity.'
p6205
sg4
(lp6206
sg6
(lp6207
(dp6208
g9
I0
sg10
VC0021051
p6209
sg12
I16
sg13
VIMMUNODEFICIENCY
p6210
sg15
I1
sasa(dp6211
g2
S'IMMUNODEFICIENCY 27B is an entity.'
p6212
sg4
(lp6213
sg6
(lp6214
(dp6215
g9
I0
sg10
VC0021051
p6216
sg12
I16
sg13
VIMMUNODEFICIENCY
p6217
sg15
I1
sasa(dp6218
g2
S'MENTAL RETARDATION, AUTOSOMAL RECESSIVE 45 is an entity.'
p6219
sg4
(lp6220
sg6
(lp6221
(dp6222
g9
I0
sg10
VC0025362
p6223
sg12
I18
sg13
VMENTAL RETARDATION
p6224
sg15
I2
sasa(dp6225
g2
S'IMMUNODEFICIENCY 36 is an entity.'
p6226
sg4
(lp6227
sg6
(lp6228
(dp6229
g9
I0
sg10
VC0021051
p6230
sg12
I16
sg13
VIMMUNODEFICIENCY
p6231
sg15
I1
sasa(dp6232
g2
S'HENNEKAM LYMPHANGIECTASIA-LYMPHEDEMA SYNDROME 2 is an entity.'
p6233
sg4
(lp6234
sg6
(lp6235
(dp6236
g9
I0
sg10
VC0340834
p6237
sg12
I45
sg13
VHENNEKAM LYMPHANGIECTASIA-LYMPHEDEMA SYNDROME
p6238
sg15
I3
sasa(dp6239
g2
S'MICROCEPHALY AND CHORIORETINOPATHY, AUTOSOMAL RECESSIVE, 2 is an entity.'
p6240
sg4
(lp6241
sg6
(lp6242
(dp6243
g9
I0
sg10
VC0025958
p6244
sg12
I12
sg13
VMICROCEPHALY
p6245
sg15
I1
sa(dp6246
g9
I17
sg10
VC0339383
p6247
sg12
I17
sg13
VCHORIORETINOPATHY
p6248
sg15
I1
sasa(dp6249
g2
S'CEREBELLOFACIODENTAL SYNDROME is an entity.'
p6250
sg4
(lp6251
sg6
(lp6252
(dp6253
g9
I21
sg10
VC0039082
p6254
sg12
I8
sg13
VSYNDROME
p6255
sg15
I1
sasa(dp6256
g2
S'AMELOGENESIS IMPERFECTA, TYPE IH is an entity.'
p6257
sg4
(lp6258
sg6
(lp6259
(dp6260
g9
I0
sg10
VC0002452
p6261
sg12
I23
sg13
VAMELOGENESIS IMPERFECTA
p6262
sg15
I2
sasa(dp6263
g2
S'LONG QT SYNDROME 14 is an entity.'
p6264
sg4
(lp6265
sg6
(lp6266
(dp6267
g9
I0
sg10
VC0023976
p6268
sg12
I16
sg13
VLONG QT SYNDROME
p6269
sg15
I3
sasa(dp6270
g2
S'MECKEL SYNDROME 12 is an entity. \n'
p6271
sg4
(lp6272
sg6
(lp6273
(dp6274
g9
I0
sg10
VC0265215
p6275
sg12
I15
sg13
VMECKEL SYNDROME
p6276
sg15
I2
sasa(dp6277
g2
S'ANALBUMINEMIA BAGHDAD is an entity.'
p6278
sg4
(lp6279
sg6
(lp6280
sa(dp6281
g2
S'ALZHEIMER DISEASE, FAMILIAL, 3, WITH SPASTIC PARAPARESIS is an entity.'
p6282
sg4
(lp6283
sg6
(lp6284
(dp6285
g9
I37
sg10
VC0037771
p6286
sg12
I19
sg13
VSPASTIC PARAPARESIS
p6287
sg15
I2
sa(dp6288
g9
I0
sg10
VC1843013
p6289
sg12
I30
sg13
VALZHEIMER DISEASE, FAMILIAL, 3
p6290
sg15
I4
sasa(dp6291
g2
S'AMYLOIDOSIS, CARDIAC AND CUTANEOUS is an entity.'
p6292
sg4
(lp6293
sg6
(lp6294
(dp6295
g9
I0
sg10
VC0002726
p6296
sg12
I11
sg13
VAMYLOIDOSIS
p6297
sg15
I1
sasa(dp6298
g2
S'HYPERCHOLESTEROLEMIA AND HYPERTRIGLYCERIDEMIA, TYPE III is an entity.'
p6299
sg4
(lp6300
sg6
(lp6301
(dp6302
g9
I0
sg10
VC0020443
p6303
sg12
I20
sg13
VHYPERCHOLESTEROLEMIA
p6304
sg15
I1
sasa(dp6305
g2
S'RHD, WEAK D, TYPE I is an entity.'
p6306
sg4
(lp6307
(dp6308
g9
I13
sg55
VP29475
p6309
sg12
I6
sg13
VTYPE I
p6310
sg15
I2
sasg6
(lp6311
(dp6312
g9
I0
sg10
VC0035439
p6313
sg12
I3
sg13
VRHD
p6314
sg15
I1
sasa(dp6315
g2
S'BONE MINERAL DENSITY VARIATION QUANTITATIVE TRAIT LOCUS is an entity.'
p6316
sg4
(lp6317
sg6
(lp6318
sa(dp6319
g2
S'ESOPHAGEAL CARCINOMA, SOMATIC is an entity.'
p6320
sg4
(lp6321
sg6
(lp6322
(dp6323
g9
I0
sg10
VC0152018
p6324
sg12
I20
sg13
VESOPHAGEAL CARCINOMA
p6325
sg15
I2
sasa(dp6326
g2
S'SQUAMOUS CELL CARCINOMA, BURN SCAR-RELATED, SOMATIC is an entity.'
p6327
sg4
(lp6328
(dp6329
g9
I0
sg55
VP62701
p6330
sg12
I42
sg13
VSQUAMOUS CELL CARCINOMA, BURN SCAR-RELATED
p6331
sg15
I5
sasg6
(lp6332
(dp6333
g9
I25
sg10
VC0036280
p6334
sg12
I9
sg13
VBURN SCAR
p6335
sg15
I2
sa(dp6336
g9
I0
sg10
VC0007137
p6337
sg12
I23
sg13
VSQUAMOUS CELL CARCINOMA
p6338
sg15
I3
sasa(dp6339
g2
S'MARFAN SYNDROME, SEVERE CLASSIC is an entity.'
p6340
sg4
(lp6341
sg6
(lp6342
(dp6343
g9
I0
sg10
VC0024796
p6344
sg12
I15
sg13
VMARFAN SYNDROME
p6345
sg15
I2
sasa(dp6346
g2
S'DIABETES MELLITUS, NONINSULIN-DEPENDENT, LATE-ONSET is an entity. \n'
p6347
sg4
(lp6348
sg6
(lp6349
(dp6350
g9
I0
sg10
VC0011860
p6351
sg12
I39
sg13
VDIABETES MELLITUS, NONINSULIN-DEPENDENT
p6352
sg15
I3
sasa(dp6353
g2
S'PSEUDOHYPOPARATHYROIDISM, TYPE IA, WITH TESTOTOXICOSIS is an entity.'
p6354
sg4
(lp6355
(dp6356
g9
I0
sg55
VP41225
p6357
sg12
I24
sg13
VPSEUDOHYPOPARATHYROIDISM
p6358
sg15
I1
sasg6
(lp6359
(dp6360
g9
I0
sg10
VC3494506
p6361
sg12
I33
sg13
VPSEUDOHYPOPARATHYROIDISM, TYPE IA
p6362
sg15
I3
sa(dp6363
g9
I40
sg10
VC1504412
p6364
sg12
I14
sg13
VTESTOTOXICOSIS
p6365
sg15
I1
sasa(dp6366
g2
S'ICHTHYOSIS HISTRIX, CURTH-MACKLIN TYPE is an entity.'
p6367
sg4
(lp6368
sg6
(lp6369
(dp6370
g9
I0
sg10
VC0020758
p6371
sg12
I10
sg13
VICHTHYOSIS
p6372
sg15
I1
sasa(dp6373
g2
S'HIV-1 VIREMIA, SUSCEPTIBILITY TO is an entity.'
p6374
sg4
(lp6375
sg6
(lp6376
(dp6377
g9
I6
sg10
VC0042749
p6378
sg12
I7
sg13
VVIREMIA
p6379
sg15
I1
sa(dp6380
g9
I0
sg10
VC0019693
p6381
sg12
I3
sg13
VHIV
p6382
sg15
I1
sasa(dp6383
g2
S'SKIN/HAIR/EYE PIGMENTATION 2, RED HAIR/FAIR SKIN is an entity.'
p6384
sg4
(lp6385
(dp6386
g9
I0
sg55
g66
sg12
I4
sg13
VSKIN
p6387
sg15
I1
sa(dp6388
g9
I5
sg55
g66
sg12
I4
sg13
VHAIR
p6389
sg15
I1
sasg6
(lp6390
sa(dp6391
g2
S'DEJERINE-SOTTAS SYNDROME, AUTOSOMAL DOMINANT is an entity.'
p6392
sg4
(lp6393
sg6
(lp6394
(dp6395
g9
I0
sg10
VC0011195
p6396
sg12
I24
sg13
VDEJERINE-SOTTAS SYNDROME
p6397
sg15
I2
sasa(dp6398
g2
S'HYPOGONADOTROPIC HYPOGONADISM 10 WITHOUT ANOSMIA is an entity.'
p6399
sg4
(lp6400
(dp6401
g9
I0
sg55
g66
sg12
I48
sg13
VHYPOGONADOTROPIC HYPOGONADISM 10 WITHOUT ANOSMIA
p6402
sg15
I5
sasg6
(lp6403
(dp6404
g9
I41
sg10
VC0003126
p6405
sg12
I7
sg13
VANOSMIA
p6406
sg15
I1
sa(dp6407
g9
I0
sg10
VC0022735
p6408
sg12
I29
sg13
VHYPOGONADOTROPIC HYPOGONADISM
p6409
sg15
I2
sasa(dp6410
g2
S'RETINITIS PIGMENTOSA 4, AUTOSOMAL RECESSIVE is an entity.'
p6411
sg4
(lp6412
sg6
(lp6413
(dp6414
g9
I0
sg10
VC3151001
p6415
sg12
I22
sg13
VRETINITIS PIGMENTOSA 4
p6416
sg15
I3
sasa(dp6417
g2
S'MAPLE SYRUP URINE DISEASE, CLASSIC, TYPE IB is an entity.'
p6418
sg4
(lp6419
sg6
(lp6420
(dp6421
g9
I0
sg10
VC0268568
p6422
sg12
I34
sg13
VMAPLE SYRUP URINE DISEASE, CLASSIC
p6423
sg15
I5
sasa(dp6424
g2
S'CHONDRODYSPLASIA PUNCTATA 2, X-LINKED DOMINANT, ATYPICAL is an entity.'
p6425
sg4
(lp6426
sg6
(lp6427
(dp6428
g9
I0
sg10
VC2931843
p6429
sg12
I46
sg13
VCHONDRODYSPLASIA PUNCTATA 2, X-LINKED DOMINANT
p6430
sg15
I5
sasa(dp6431
g2
S'INTERMEDIATE MUSCULAR DYSTROPHY is an entity. \n'
p6432
sg4
(lp6433
sg6
(lp6434
(dp6435
g9
I13
sg10
VC0026850
p6436
sg12
I18
sg13
VMUSCULAR DYSTROPHY
p6437
sg15
I2
sasa(dp6438
g2
S'RETINITIS PIGMENTOSA, X-LINKED, AND SINORESPIRATORY INFECTIONS, WITH DEAFNESS is an entity.'
p6439
sg4
(lp6440
sg6
(lp6441
(dp6442
g9
I52
sg10
VC0021311
p6443
sg12
I10
sg13
VINFECTIONS
p6444
sg15
I1
sa(dp6445
g9
I69
sg10
VC0011053
p6446
sg12
I8
sg13
VDEAFNESS
p6447
sg15
I1
sa(dp6448
g9
I0
sg10
VC0035334
p6449
sg12
I20
sg13
VRETINITIS PIGMENTOSA
p6450
sg15
I2
sasa(dp6451
g2
S'OPHTHALMOPLEGIA, ISOLATED is an entity.'
p6452
sg4
(lp6453
sg6
(lp6454
(dp6455
g9
I0
sg10
VC0029089
p6456
sg12
I15
sg13
VOPHTHALMOPLEGIA
p6457
sg15
I1
sasa(dp6458
g2
S'IMMUNODEFICIENCY 26 WITHOUT NEUROLOGIC ABNORMALITIES is an entity.'
p6459
sg4
(lp6460
sg6
(lp6461
(dp6462
g9
I0
sg10
VC0021051
p6463
sg12
I16
sg13
VIMMUNODEFICIENCY
p6464
sg15
I1
sasa(dp6465
g2
S'CHARCOT-MARIE-TOOTH DISEASE, TYPE 1A, WITH FOCALLY FOLDED MYELIN SHEATHS is an entity.'
p6466
sg4
(lp6467
sg6
(lp6468
(dp6469
g9
I0
sg10
VC0270911
p6470
sg12
I36
sg13
VCHARCOT-MARIE-TOOTH DISEASE, TYPE 1A
p6471
sg15
I4
sasa(dp6472
g2
S'BASAL CELL CARCINOMA, SPORADIC is an entity.'
p6473
sg4
(lp6474
sg6
(lp6475
(dp6476
g9
I0
sg10
VC0007117
p6477
sg12
I20
sg13
VBASAL CELL CARCINOMA
p6478
sg15
I3
sasa(dp6479
g2
S'IMMUNODEFICIENCY 32B is an entity.'
p6480
sg4
(lp6481
sg6
(lp6482
(dp6483
g9
I0
sg10
VC0021051
p6484
sg12
I16
sg13
VIMMUNODEFICIENCY
p6485
sg15
I1
sasa(dp6486
g2
S'SCHWANNOMATOSIS 1, SOMATIC is an entity.'
p6487
sg4
(lp6488
sg6
(lp6489
(dp6490
g9
I0
sg10
VC1335929
p6491
sg12
I15
sg13
VSCHWANNOMATOSIS
p6492
sg15
I1
sasa(dp6493
g2
S'GLAUCOMA, EARLY-ONSET, DIGENIC is an entity.'
p6494
sg4
(lp6495
sg6
(lp6496
(dp6497
g9
I0
sg10
VC0017601
p6498
sg12
I8
sg13
VGLAUCOMA
p6499
sg15
I1
sasa(dp6500
g2
S'DEAFNESS, WITH SMITH-MAGENIS SYNDROME is an entity.'
p6501
sg4
(lp6502
(dp6503
g9
I10
sg55
g66
sg12
I27
sg13
VWITH SMITH-MAGENIS SYNDROME
p6504
sg15
I3
sasg6
(lp6505
(dp6506
g9
I15
sg10
VC0795864
p6507
sg12
I22
sg13
VSMITH-MAGENIS SYNDROME
p6508
sg15
I2
sa(dp6509
g9
I0
sg10
VC0011053
p6510
sg12
I8
sg13
VDEAFNESS
p6511
sg15
I1
sasa(dp6512
g2
S'BJORNSTAD SYNDROME WITH MILD MITOCHONDRIAL COMPLEX III DEFICIENCY is an entity. \n'
p6513
sg4
(lp6514
(dp6515
g9
I0
sg55
g66
sg12
I65
sg13
VBJORNSTAD SYNDROME WITH MILD MITOCHONDRIAL COMPLEX III DEFICIENCY
p6516
sg15
I8
sasg6
(lp6517
(dp6518
g9
I29
sg10
VC1852372
p6519
sg12
I36
sg13
VMITOCHONDRIAL COMPLEX III DEFICIENCY
p6520
sg15
I4
sa(dp6521
g9
I0
sg10
VC0266006
p6522
sg12
I18
sg13
VBJORNSTAD SYNDROME
p6523
sg15
I2
sasa(dp6524
g2
S'ESOPHAGEAL SQUAMOUS CELL CARCINOMA, SOMATIC is an entity.'
p6525
sg4
(lp6526
sg6
(lp6527
(dp6528
g9
I0
sg10
VC0279626
p6529
sg12
I34
sg13
VESOPHAGEAL SQUAMOUS CELL CARCINOMA
p6530
sg15
I4
sasa(dp6531
g2
S'46,XY GONADAL DYSGENESIS, COMPLETE, DHH-RELATED is an entity.'
p6532
sg4
(lp6533
(dp6534
g9
I36
sg55
VP55290
p6535
sg12
I3
sg13
VDHH
p6536
sg15
I1
sasg6
(lp6537
(dp6538
g9
I6
sg10
VC0041408
p6539
sg12
I18
sg13
VGONADAL DYSGENESIS
p6540
sg15
I2
sasa(dp6541
g2
S'BREAST CANCER, EARLY-ONSET is an entity.'
p6542
sg4
(lp6543
sg6
(lp6544
(dp6545
g9
I0
sg10
VC0678222
p6546
sg12
I13
sg13
VBREAST CANCER
p6547
sg15
I2
sasa(dp6548
g2
S'COMPLEMENT COMPONENT 4, PARTIAL DEFICIENCY OF, DUE TO DYSFUNCTIONAL C1 INHIBITOR is an entity.'
p6549
sg4
(lp6550
(dp6551
g9
I0
sg55
g66
sg12
I45
sg13
VCOMPLEMENT COMPONENT 4, PARTIAL DEFICIENCY OF
p6552
sg15
I6
sasg6
(lp6553
(dp6554
g9
I0
sg10
VC1852700
p6555
sg12
I45
sg13
VCOMPLEMENT COMPONENT 4, PARTIAL DEFICIENCY OF
p6556
sg15
I6
sasa(dp6557
g2
S'CYSTIC PARATHYROID ADENOMA, SOMATIC is an entity.'
p6558
sg4
(lp6559
sg6
(lp6560
(dp6561
g9
I7
sg10
VC0262587
p6562
sg12
I19
sg13
VPARATHYROID ADENOMA
p6563
sg15
I2
sasa(dp6564
g2
S'METACHROMATIC LEUKODYSTROPHY, SEVERE is an entity.'
p6565
sg4
(lp6566
sg6
(lp6567
(dp6568
g9
I0
sg10
VC0023522
p6569
sg12
I28
sg13
VMETACHROMATIC LEUKODYSTROPHY
p6570
sg15
I2
sasa(dp6571
g2
S'METHIONINE ADENOSYLTRANSFERASE DEFICIENCY, AUTOSOMAL RECESSIVE is an entity.'
p6572
sg4
(lp6573
sg6
(lp6574
(dp6575
g9
I0
sg10
VC0268621
p6576
sg12
I41
sg13
VMETHIONINE ADENOSYLTRANSFERASE DEFICIENCY
p6577
sg15
I3
sasa(dp6578
g2
S'APPARENT MINERALOCORTICOID EXCESS, MILD is an entity.'
p6579
sg4
(lp6580
sg6
(lp6581
(dp6582
g9
I0
sg10
VC2936861
p6583
sg12
I33
sg13
VAPPARENT MINERALOCORTICOID EXCESS
p6584
sg15
I3
sasa(dp6585
g2
S'SPONDYLOEPIMETAPHYSEAL DYSPLASIA WITH JOINT LAXITY, TYPE 1, WITH FRACTURES is an entity.'
p6586
sg4
(lp6587
sg6
(lp6588
(dp6589
g9
I0
sg10
VC0432243
p6590
sg12
I58
sg13
VSPONDYLOEPIMETAPHYSEAL DYSPLASIA WITH JOINT LAXITY, TYPE 1
p6591
sg15
I7
sasa(dp6592
g2
S'BETA-MALAY-THALASSEMIA is an entity. \n'
p6593
sg4
(lp6594
(dp6595
g9
I0
sg55
VP69905
p6596
sg12
I22
sg13
VBETA-MALAY-THALASSEMIA
p6597
sg15
I1
sasg6
(lp6598
(dp6599
g9
I11
sg10
VC0039730
p6600
sg12
I11
sg13
VTHALASSEMIA
p6601
sg15
I1
sasa(dp6602
g2
S'ANEMIA, NONSPEHEROCYTIC HEMOLYTIC, DUE TO G6PD DEFICIENCY is an entity.'
p6603
sg4
(lp6604
(dp6605
g9
I35
sg55
VP11441
p6606
sg12
I22
sg13
VDUE TO G6PD DEFICIENCY
p6607
sg15
I4
sasg6
(lp6608
(dp6609
g9
I42
sg10
VC0017758
p6610
sg12
I15
sg13
VG6PD DEFICIENCY
p6611
sg15
I2
sa(dp6612
g9
I0
sg10
VC0002871
p6613
sg12
I6
sg13
VANEMIA
p6614
sg15
I1
sasa(dp6615
g2
S'FOVEAL HYPOPLASIA 1 WITH OR WITHOUT ANTERIOR SEGMENT ANOMALIES is an entity.'
p6616
sg4
(lp6617
(dp6618
g9
I7
sg55
VP12235
p6619
sg12
I55
sg13
VHYPOPLASIA 1 WITH OR WITHOUT ANTERIOR SEGMENT ANOMALIES
p6620
sg15
I8
sasg6
(lp6621
(dp6622
g9
I7
sg10
VC0243069
p6623
sg12
I10
sg13
VHYPOPLASIA
p6624
sg15
I1
sasa(dp6625
g2
S'Abnormality of peripheral nerve conduction is an entity.'
p6626
sg4
(lp6627
sg6
(lp6628
sa(dp6629
g2
S'Wide nasal ridge is an entity.'
p6630
sg4
(lp6631
sg6
(lp6632
sa(dp6633
g2
S'Elevated urinary homovanillic acid is an entity.'
p6634
sg4
(lp6635
sg6
(lp6636
sa(dp6637
g2
S'Aplasia of the eyelids is an entity.'
p6638
sg4
(lp6639
sg6
(lp6640
(dp6641
g9
I0
sg10
VC0243065
p6642
sg12
I7
sg13
VAplasia
p6643
sg15
I1
sasa(dp6644
g2
S'Pointed incisor is an entity.'
p6645
sg4
(lp6646
sg6
(lp6647
sa(dp6648
g2
S'Absence of the parotid gland is an entity.'
p6649
sg4
(lp6650
sg6
(lp6651
sa(dp6652
g2
S'Moderate neural deafness is an entity.'
p6653
sg4
(lp6654
sg6
(lp6655
(dp6656
g9
I9
sg10
VC0155550
p6657
sg12
I15
sg13
Vneural deafness
p6658
sg15
I2
sasa(dp6659
g2
S'White matter dysmyelination/demyelination is an entity. \n'
p6660
sg4
(lp6661
sg6
(lp6662
(dp6663
g9
I28
sg10
VC0011304
p6664
sg12
I13
sg13
Vdemyelination
p6665
sg15
I1
sasa(dp6666
g2
S'Absence of B cells is an entity.'
p6667
sg4
(lp6668
sg6
(lp6669
sa(dp6670
g2
S'EMG: spontaneous, repetitive electrical activity is an entity.'
p6671
sg4
(lp6672
sg6
(lp6673
sa(dp6674
g2
S'Relative short stature is an entity.'
p6675
sg4
(lp6676
sg6
(lp6677
(dp6678
g9
I9
sg10
VC0013336
p6679
sg12
I13
sg13
Vshort stature
p6680
sg15
I2
sasa(dp6681
g2
S'Bowed and upward slanting eyebrows is an entity.'
p6682
sg4
(lp6683
sg6
(lp6684
sa(dp6685
g2
S'Cortical white matter abnormalities seen on MRI is an entity.'
p6686
sg4
(lp6687
sg6
(lp6688
sa(dp6689
g2
S'Abnormality of the backbone is an entity.'
p6690
sg4
(lp6691
sg6
(lp6692
sa(dp6693
g2
S'Pinched nasal bridge is an entity.'
p6694
sg4
(lp6695
sg6
(lp6696
sa(dp6697
g2
S'Hypointensity of cerebral white matter on MRI is an entity.'
p6698
sg4
(lp6699
sg6
(lp6700
sa(dp6701
g2
S'Abnormal trabecular bone morphology is an entity.'
p6702
sg4
(lp6703
sg6
(lp6704
sa(dp6705
g2
S'Abnormal pigmentation of the oral mucosa is an entity. \n'
p6706
sg4
(lp6707
sg6
(lp6708
sa(dp6709
g2
S'Abnormal vertebral ossification is an entity.'
p6710
sg4
(lp6711
sg6
(lp6712
sa(dp6713
g2
S'Iron accumulation in brain is an entity.'
p6714
sg4
(lp6715
sg6
(lp6716
sa(dp6717
g2
S'Fatty replacement of skeletal muscle is an entity.'
p6718
sg4
(lp6719
sg6
(lp6720
sa(dp6721
g2
S'Optic nerve aplasia is an entity.'
p6722
sg4
(lp6723
sg6
(lp6724
(dp6725
g9
I12
sg10
VC0243065
p6726
sg12
I7
sg13
Vaplasia
p6727
sg15
I1
sasa(dp6728
g2
S'Abnormality of brain morphology is an entity.'
p6729
sg4
(lp6730
sg6
(lp6731
sa(dp6732
g2
S'Abnormal hypothalamus morphology is an entity.'
p6733
sg4
(lp6734
sg6
(lp6735
sa(dp6736
g2
S'Partial absence of toe is an entity.'
p6737
sg4
(lp6738
sg6
(lp6739
sa(dp6740
g2
S'Chromosomal breakage induced by ionizing radiation is an entity.'
p6741
sg4
(lp6742
sg6
(lp6743
(dp6744
g9
I0
sg10
VC0376628
p6745
sg12
I20
sg13
VChromosomal breakage
p6746
sg15
I2
sasa(dp6747
g2
S'Anterior pituitary agenesis is an entity.'
p6748
sg4
(lp6749
sg6
(lp6750
(dp6751
g9
I9
sg10
VC1386974
p6752
sg12
I18
sg13
Vpituitary agenesis
p6753
sg15
I2
sasa(dp6754
g2
S'Exercise-induced rhabdomyolysis is an entity. \n'
p6755
sg4
(lp6756
sg6
(lp6757
(dp6758
g9
I17
sg10
VC0035410
p6759
sg12
I14
sg13
Vrhabdomyolysis
p6760
sg15
I1
sasa(dp6761
g2
S'Recurrent loss of toenails and fingernails is an entity.'
p6762
sg4
(lp6763
sg6
(lp6764
sa(dp6765
g2
S'Asymptomatic hyperammonemia is an entity.'
p6766
sg4
(lp6767
sg6
(lp6768
(dp6769
g9
I13
sg10
VC0220994
p6770
sg12
I14
sg13
Vhyperammonemia
p6771
sg15
I1
sasa(dp6772
g2
S'Hypoplasia of the lacrimal puncta is an entity.'
p6773
sg4
(lp6774
sg6
(lp6775
(dp6776
g9
I0
sg10
VC0243069
p6777
sg12
I10
sg13
VHypoplasia
p6778
sg15
I1
sasa(dp6779
g2
S'Bilateral lung agenesis is an entity.'
p6780
sg4
(lp6781
sg6
(lp6782
(dp6783
g9
I10
sg10
VC0456891
p6784
sg12
I13
sg13
Vlung agenesis
p6785
sg15
I2
sasa(dp6786
g2
S'Abnormality of epiphysis morphology is an entity.'
p6787
sg4
(lp6788
sg6
(lp6789
sa(dp6790
g2
S'Neonatal epiphyseal stippling is an entity.'
p6791
sg4
(lp6792
sg6
(lp6793
sa(dp6794
g2
S'Absent ossification of calvaria is an entity.'
p6795
sg4
(lp6796
sg6
(lp6797
sa(dp6798
g2
S'Recurrent abdominal hernia is an entity.'
p6799
sg4
(lp6800
sg6
(lp6801
(dp6802
g9
I10
sg10
VC0178282
p6803
sg12
I16
sg13
Vabdominal hernia
p6804
sg15
I2
sasa(dp6805
g2
S'EMG: neuropathic changes is an entity.'
p6806
sg4
(lp6807
sg6
(lp6808
sa(dp6809
g2
S'Junctional split is an entity. \n'
p6810
sg4
(lp6811
sg6
(lp6812
sa(dp6813
g2
S'Recurrent Klebsiella infections is an entity.'
p6814
sg4
(lp6815
sg6
(lp6816
(dp6817
g9
I10
sg10
VC0022729
p6818
sg12
I21
sg13
VKlebsiella infections
p6819
sg15
I2
sasa(dp6820
g2
S'Abnormality of lung morphology is an entity.'
p6821
sg4
(lp6822
sg6
(lp6823
sa(dp6824
g2
S'Abnormality of the cerebrum is an entity.'
p6825
sg4
(lp6826
sg6
(lp6827
sa(dp6828
g2
S'Camptodactyly of toe is an entity.'
p6829
sg4
(lp6830
sg6
(lp6831
(dp6832
g9
I0
sg10
VC0221369
p6833
sg12
I13
sg13
VCamptodactyly
p6834
sg15
I1
sasa(dp6835
g2
S'Abnormality of the skeletal system is an entity.'
p6836
sg4
(lp6837
sg6
(lp6838
sa(dp6839
g2
S'Restrictive behavior is an entity.'
p6840
sg4
(lp6841
sg6
(lp6842
sa(dp6843
g2
S'Abnormality of earlobe is an entity.'
p6844
sg4
(lp6845
sg6
(lp6846
sa(dp6847
g2
S'Abnormality of female external genitalia is an entity.'
p6848
sg4
(lp6849
sg6
(lp6850
sa(dp6851
g2
S'Increased serum free triiodothyronine is an entity.'
p6852
sg4
(lp6853
sg6
(lp6854
sa(dp6855
g2
S'Abnormality of the thoracic spine is an entity. \n'
p6856
sg4
(lp6857
sg6
(lp6858
(dp6859
g9
I19
sg10
VC0729233
p6860
sg12
I8
sg13
Vthoracic
p6861
sg15
I1
sasa.