(lp0
(dp1
S'line'
p2
S'Abortion, Habitual is an entity.'
p3
sS'genes'
p4
(lp5
sS'diseases'
p6
(lp7
(dp8
S'index'
p9
I0
sS'cui'
p10
VC0000809
p11
sS'lengthInChars'
p12
I18
sS'name'
p13
VAbortion, Habitual
p14
sS'lengthInWords'
p15
I2
sasa(dp16
g2
S'Threatened abortion is an entity.'
p17
sg4
(lp18
sg6
(lp19
(dp20
g9
I0
sg10
VC0000821
p21
sg12
I19
sg13
VThreatened abortion
p22
sg15
I2
sasa(dp23
g2
S'Actinomycosis is an entity.'
p24
sg4
(lp25
sg6
(lp26
(dp27
g9
I0
sg10
VC0001261
p28
sg12
I13
sg13
VActinomycosis
p29
sg15
I1
sasa(dp30
g2
S'Acute bronchiolitis is an entity.'
p31
sg4
(lp32
sg6
(lp33
(dp34
g9
I0
sg10
VC0001311
p35
sg12
I19
sg13
VAcute bronchiolitis
p36
sg15
I2
sasa(dp37
g2
S'Adenitis is an entity.'
p38
sg4
(lp39
sg6
(lp40
(dp41
g9
I0
sg10
VC0024205
p42
sg12
I8
sg13
VAdenitis
p43
sg15
I1
sasa(dp44
g2
S'Adjustment Disorders is an entity.'
p45
sg4
(lp46
sg6
(lp47
(dp48
g9
I0
sg10
VC0001546
p49
sg12
I20
sg13
VAdjustment Disorders
p50
sg15
I2
sasa(dp51
g2
S'Adrenal Gland Neoplasms is an entity.'
p52
sg4
(lp53
sg6
(lp54
(dp55
g9
I0
sg10
VC0001624
p56
sg12
I23
sg13
VAdrenal Gland Neoplasms
p57
sg15
I3
sasa(dp58
g2
S'Adult Antisocial Behavior is an entity.'
p59
sg4
(lp60
sg6
(lp61
(dp62
g9
I0
sg10
VC0001676
p63
sg12
I25
sg13
VAdult Antisocial Behavior
p64
sg15
I3
sasa(dp65
g2
S'African swine fever is an entity.'
p66
sg4
(lp67
sg6
(lp68
(dp69
g9
I0
sg10
VC0001752
p70
sg12
I19
sg13
VAfrican swine fever
p71
sg15
I3
sasa(dp72
g2
S'Alcohol consumption is an entity. \n'
p73
sg4
(lp74
sg6
(lp75
sa(dp76
g2
S'Alcoholic Intoxication, Chronic is an entity.'
p77
sg4
(lp78
sg6
(lp79
(dp80
g9
I0
sg10
VC0001973
p81
sg12
I31
sg13
VAlcoholic Intoxication, Chronic
p82
sg15
I3
sasa(dp83
g2
S'alpha-Thalassemia is an entity.'
p84
sg4
(lp85
sg6
(lp86
(dp87
g9
I0
sg10
VC0002312
p88
sg12
I17
sg13
Valpha-Thalassemia
p89
sg15
I1
sasa(dp90
g2
S'Altitude Sickness is an entity.'
p91
sg4
(lp92
sg6
(lp93
(dp94
g9
I0
sg10
VC0002351
p95
sg12
I17
sg13
VAltitude Sickness
p96
sg15
I2
sasa(dp97
g2
S'Amenorrhea is an entity.'
p98
sg4
(lp99
sg6
(lp100
(dp101
g9
I0
sg10
VC0002453
p102
sg12
I10
sg13
VAmenorrhea
p103
sg15
I1
sasa(dp104
g2
S'Anemia of chronic disease is an entity.'
p105
sg4
(lp106
sg6
(lp107
(dp108
g9
I0
sg10
VC0002873
p109
sg12
I25
sg13
VAnemia of chronic disease
p110
sg15
I4
sasa(dp111
g2
S'Autoimmune hemolytic anemia is an entity.'
p112
sg4
(lp113
sg6
(lp114
(dp115
g9
I0
sg10
VC0002880
p116
sg12
I27
sg13
VAutoimmune hemolytic anemia
p117
sg15
I3
sasa(dp118
g2
S'Leukoerythroblastic Anemia is an entity.'
p119
sg4
(lp120
sg6
(lp121
(dp122
g9
I0
sg10
VC0002890
p123
sg12
I26
sg13
VLeukoerythroblastic Anemia
p124
sg15
I2
sasa(dp125
g2
S'Epithelioid hemangioma of skin is an entity.'
p126
sg4
(lp127
sg6
(lp128
(dp129
g9
I0
sg10
VC0002989
p130
sg12
I30
sg13
VEpithelioid hemangioma of skin
p131
sg15
I4
sasa(dp132
g2
S'Anhidrosis is an entity.'
p133
sg4
(lp134
sg6
(lp135
(dp136
g9
I0
sg10
VC0003028
p137
sg12
I10
sg13
VAnhidrosis
p138
sg15
I1
sasa(dp139
g2
S'Anophthalmos is an entity. \n'
p140
sg4
(lp141
sg6
(lp142
(dp143
g9
I0
sg10
VC0003119
p144
sg12
I12
sg13
VAnophthalmos
p145
sg15
I1
sasa(dp146
g2
S'Aphakia is an entity.'
p147
sg4
(lp148
sg6
(lp149
(dp150
g9
I0
sg10
VC0003534
p151
sg12
I7
sg13
VAphakia
p152
sg15
I1
sasa(dp153
g2
S'Arcus Senilis is an entity.'
p154
sg4
(lp155
sg6
(lp156
(dp157
g9
I0
sg10
VC0003742
p158
sg12
I13
sg13
VArcus Senilis
p159
sg15
I2
sasa(dp160
g2
S'Arterial Occlusive Diseases is an entity.'
p161
sg4
(lp162
sg6
(lp163
(dp164
g9
I0
sg10
VC0003838
p165
sg12
I27
sg13
VArterial Occlusive Diseases
p166
sg15
I3
sasa(dp167
g2
S'Arteriovenous fistula is an entity.'
p168
sg4
(lp169
sg6
(lp170
(dp171
g9
I0
sg10
VC0003855
p172
sg12
I21
sg13
VArteriovenous fistula
p173
sg15
I2
sasa(dp174
g2
S'Arthus Reaction is an entity.'
p175
sg4
(lp176
sg6
(lp177
(dp178
g9
I0
sg10
VC0003907
p179
sg12
I15
sg13
VArthus Reaction
p180
sg15
I2
sasa(dp181
g2
S'Nonproliferative diabetic retinopathy is an entity.'
p182
sg4
(lp183
sg6
(lp184
(dp185
g9
I0
sg10
VC0004606
p186
sg12
I37
sg13
VNonproliferative diabetic retinopathy
p187
sg15
I3
sasa(dp188
g2
S'Bacteriuria is an entity.'
p189
sg4
(lp190
sg6
(lp191
(dp192
g9
I0
sg10
VC0004659
p193
sg12
I11
sg13
VBacteriuria
p194
sg15
I1
sasa(dp195
g2
S'Bartonella Infections is an entity.'
p196
sg4
(lp197
sg6
(lp198
(dp199
g9
I0
sg10
VC0004771
p200
sg12
I21
sg13
VBartonella Infections
p201
sg15
I2
sasa(dp202
g2
S'Beckwith-Wiedemann Syndrome is an entity.'
p203
sg4
(lp204
sg6
(lp205
(dp206
g9
I0
sg10
VC0004903
p207
sg12
I27
sg13
VBeckwith-Wiedemann Syndrome
p208
sg15
I2
sasa(dp209
g2
S'Bernard-Soulier Syndrome is an entity. \n'
p210
sg4
(lp211
sg6
(lp212
(dp213
g9
I0
sg10
VC0005129
p214
sg12
I24
sg13
VBernard-Soulier Syndrome
p215
sg15
I2
sasa(dp216
g2
S'Bipolar Disorder is an entity.'
p217
sg4
(lp218
sg6
(lp219
(dp220
g9
I0
sg10
VC0005586
p221
sg12
I16
sg13
VBipolar Disorder
p222
sg15
I2
sasa(dp223
g2
S'Malignant neoplasm of urinary bladder is an entity.'
p224
sg4
(lp225
sg6
(lp226
(dp227
g9
I0
sg10
VC0005684
p228
sg12
I37
sg13
VMalignant neoplasm of urinary bladder
p229
sg15
I5
sasa(dp230
g2
S'Blepharochalasis is an entity.'
p231
sg4
(lp232
sg6
(lp233
(dp234
g9
I0
sg10
VC0005742
p235
sg12
I16
sg13
VBlepharochalasis
p236
sg15
I1
sasa(dp237
g2
S'Blepharophimosis is an entity.'
p238
sg4
(lp239
sg6
(lp240
(dp241
g9
I0
sg10
VC0005744
p242
sg12
I16
sg13
VBlepharophimosis
p243
sg15
I1
sasa(dp244
g2
S'Blood Coagulation Disorders is an entity.'
p245
sg4
(lp246
sg6
(lp247
(dp248
g9
I0
sg10
VC0005779
p249
sg12
I27
sg13
VBlood Coagulation Disorders
p250
sg15
I3
sasa(dp251
g2
S'Blood Platelet Disorders is an entity.'
p252
sg4
(lp253
sg6
(lp254
(dp255
g9
I0
sg10
VC0005818
p256
sg12
I24
sg13
VBlood Platelet Disorders
p257
sg15
I3
sasa(dp258
g2
S'Blood urea nitrogen measurement is an entity.'
p259
sg4
(lp260
sg6
(lp261
sa(dp262
g2
S'Brain Diseases, Metabolic is an entity.'
p263
sg4
(lp264
sg6
(lp265
(dp266
g9
I0
sg10
VC0006112
p267
sg12
I25
sg13
VBrain Diseases, Metabolic
p268
sg15
I3
sasa(dp269
g2
S'Brain Neoplasms is an entity.'
p270
sg4
(lp271
sg6
(lp272
(dp273
g9
I0
sg10
VC0006118
p274
sg12
I15
sg13
VBrain Neoplasms
p275
sg15
I2
sasa(dp276
g2
S'Candidiasis, Chronic Mucocutaneous is an entity. \n'
p277
sg4
(lp278
sg6
(lp279
(dp280
g9
I0
sg10
VC0006845
p281
sg12
I34
sg13
VCandidiasis, Chronic Mucocutaneous
p282
sg15
I3
sasa(dp283
g2
S'Oral candidiasis is an entity.'
p284
sg4
(lp285
sg6
(lp286
(dp287
g9
I0
sg10
VC0006849
p288
sg12
I16
sg13
VOral candidiasis
p289
sg15
I2
sasa(dp290
g2
S'Candidiasis of vagina is an entity.'
p291
sg4
(lp292
sg6
(lp293
(dp294
g9
I0
sg10
VC0006852
p295
sg12
I21
sg13
VCandidiasis of vagina
p296
sg15
I3
sasa(dp297
g2
S'Malignant neoplasm of endometrium is an entity.'
p298
sg4
(lp299
sg6
(lp300
(dp301
g9
I0
sg10
VC0007103
p302
sg12
I33
sg13
VMalignant neoplasm of endometrium
p303
sg15
I4
sasa(dp304
g2
S'Rectal Carcinoma is an entity.'
p305
sg4
(lp306
sg6
(lp307
(dp308
g9
I0
sg10
VC0007113
p309
sg12
I16
sg13
VRectal Carcinoma
p310
sg15
I2
sasa(dp311
g2
S'Malignant neoplasm of thyroid is an entity.'
p312
sg4
(lp313
sg6
(lp314
(dp315
g9
I0
sg10
VC0007115
p316
sg12
I29
sg13
VMalignant neoplasm of thyroid
p317
sg15
I4
sasa(dp318
g2
S'Mucinous Adenocarcinoma is an entity.'
p319
sg4
(lp320
sg6
(lp321
(dp322
g9
I0
sg10
VC0007130
p323
sg12
I23
sg13
VMucinous Adenocarcinoma
p324
sg15
I2
sasa(dp325
g2
S'Renal Cell Carcinoma is an entity.'
p326
sg4
(lp327
sg6
(lp328
(dp329
g9
I0
sg10
VC0007134
p330
sg12
I20
sg13
VRenal Cell Carcinoma
p331
sg15
I3
sasa(dp332
g2
S'Cataplexy is an entity.'
p333
sg4
(lp334
sg6
(lp335
(dp336
g9
I0
sg10
VC0007384
p337
sg12
I9
sg13
VCataplexy
p338
sg15
I1
sasa(dp339
g2
S'Celiac Disease is an entity.'
p340
sg4
(lp341
sg6
(lp342
(dp343
g9
I0
sg10
VC0007570
p344
sg12
I14
sg13
VCeliac Disease
p345
sg15
I2
sasa(dp346
g2
S'Cerebral Atherosclerosis is an entity. \n'
p347
sg4
(lp348
sg6
(lp349
(dp350
g9
I0
sg10
VC0007775
p351
sg12
I24
sg13
VCerebral Atherosclerosis
p352
sg15
I2
sasa(dp353
g2
S'Chediak-Higashi Syndrome is an entity.'
p354
sg4
(lp355
sg6
(lp356
(dp357
g9
I0
sg10
VC0007965
p358
sg12
I24
sg13
VChediak-Higashi Syndrome
p359
sg15
I2
sasa(dp360
g2
S'Chromosome Deletion is an entity.'
p361
sg4
(lp362
sg6
(lp363
(dp364
g9
I0
sg10
VC0008628
p365
sg12
I19
sg13
VChromosome Deletion
p366
sg15
I2
sasa(dp367
g2
S'Claustrophobia is an entity.'
p368
sg4
(lp369
sg6
(lp370
(dp371
g9
I0
sg10
VC0008909
p372
sg12
I14
sg13
VClaustrophobia
p373
sg15
I1
sasa(dp374
g2
S'Coccidioidomycosis is an entity.'
p375
sg4
(lp376
sg6
(lp377
(dp378
g9
I0
sg10
VC0009186
p379
sg12
I18
sg13
VCoccidioidomycosis
p380
sg15
I1
sasa(dp381
g2
S'Cold intolerance is an entity.'
p382
sg4
(lp383
sg6
(lp384
(dp385
g9
I0
sg10
VC0009269
p386
sg12
I16
sg13
VCold intolerance
p387
sg15
I2
sasa(dp388
g2
S'Colitis is an entity.'
p389
sg4
(lp390
sg6
(lp391
(dp392
g9
I0
sg10
VC0009319
p393
sg12
I7
sg13
VColitis
p394
sg15
I1
sasa(dp395
g2
S'Hereditary Nonpolyposis Colorectal Neoplasms is an entity.'
p396
sg4
(lp397
sg6
(lp398
(dp399
g9
I0
sg10
VC1333990
p400
sg12
I44
sg13
VHereditary Nonpolyposis Colorectal Neoplasms
p401
sg15
I4
sasa(dp402
g2
S'Spinal meningocele is an entity.'
p403
sg4
(lp404
sg6
(lp405
(dp406
g9
I0
sg10
VC0009730
p407
sg12
I18
sg13
VSpinal meningocele
p408
sg15
I2
sasa(dp409
g2
S'Conjunctivitis is an entity.'
p410
sg4
(lp411
sg6
(lp412
(dp413
g9
I0
sg10
VC0009763
p414
sg12
I14
sg13
VConjunctivitis
p415
sg15
I1
sasa(dp416
g2
S'Allergic Conjunctivitis is an entity. \n'
p417
sg4
(lp418
sg6
(lp419
(dp420
g9
I0
sg10
VC0009766
p421
sg12
I23
sg13
VAllergic Conjunctivitis
p422
sg15
I2
sasa(dp423
g2
S'Contracture is an entity.'
p424
sg4
(lp425
sg6
(lp426
(dp427
g9
I0
sg10
VC0009917
p428
sg12
I11
sg13
VContracture
p429
sg15
I1
sasa(dp430
g2
S'Febrile Convulsions is an entity.'
p431
sg4
(lp432
sg6
(lp433
(dp434
g9
I0
sg10
VC0009952
p435
sg12
I19
sg13
VFebrile Convulsions
p436
sg15
I2
sasa(dp437
g2
S'Cranial nerve diseases is an entity.'
p438
sg4
(lp439
sg6
(lp440
(dp441
g9
I0
sg10
VC0010266
p442
sg12
I22
sg13
VCranial nerve diseases
p443
sg15
I3
sasa(dp444
g2
S'Cystitis is an entity.'
p445
sg4
(lp446
sg6
(lp447
(dp448
g9
I0
sg10
VC0010692
p449
sg12
I8
sg13
VCystitis
p450
sg15
I1
sasa(dp451
g2
S'Delirium is an entity.'
p452
sg4
(lp453
sg6
(lp454
(dp455
g9
I0
sg10
VC0011206
p456
sg12
I8
sg13
VDelirium
p457
sg15
I1
sasa(dp458
g2
S'Delusional disorder is an entity.'
p459
sg4
(lp460
sg6
(lp461
(dp462
g9
I0
sg10
VC0011251
p463
sg12
I19
sg13
VDelusional disorder
p464
sg15
I2
sasa(dp465
g2
S'Diabetes is an entity.'
p466
sg4
(lp467
sg6
(lp468
(dp469
g9
I0
sg10
VC0011849
p470
sg12
I8
sg13
VDiabetes
p471
sg15
I1
sasa(dp472
g2
S'Drug Use Disorders is an entity.'
p473
sg4
(lp474
sg6
(lp475
(dp476
g9
I0
sg10
VC0013222
p477
sg12
I18
sg13
VDrug Use Disorders
p478
sg15
I3
sasa(dp479
g2
S'Duodenitis is an entity.'
p480
sg4
(lp481
sg6
(lp482
(dp483
g9
I0
sg10
VC1522057
p484
sg12
I10
sg13
VDuodenitis
p485
sg15
I1
sasa(dp486
g2
S'Ecchymosis is an entity. \n'
p487
sg4
(lp488
sg6
(lp489
sa(dp490
g2
S'Echinococcosis is an entity.'
p491
sg4
(lp492
sg6
(lp493
(dp494
g9
I0
sg10
VC0013502
p495
sg12
I14
sg13
VEchinococcosis
p496
sg15
I1
sasa(dp497
g2
S'Ellis-Van Creveld Syndrome is an entity.'
p498
sg4
(lp499
sg6
(lp500
(dp501
g9
I0
sg10
VC0013903
p502
sg12
I26
sg13
VEllis-Van Creveld Syndrome
p503
sg15
I3
sasa(dp504
g2
S'Tick-Borne Encephalitis is an entity.'
p505
sg4
(lp506
sg6
(lp507
(dp508
g9
I0
sg10
VC0014061
p509
sg12
I23
sg13
VTick-Borne Encephalitis
p510
sg15
I2
sasa(dp511
g2
S'Endocardial Fibroelastosis is an entity.'
p512
sg4
(lp513
sg6
(lp514
(dp515
g9
I0
sg10
VC0014117
p516
sg12
I26
sg13
VEndocardial Fibroelastosis
p517
sg15
I2
sasa(dp518
g2
S'Endocervicitis is an entity.'
p519
sg4
(lp520
sg6
(lp521
(dp522
g9
I0
sg10
VC0014127
p523
sg12
I14
sg13
VEndocervicitis
p524
sg15
I1
sasa(dp525
g2
S'Ependymoma is an entity.'
p526
sg4
(lp527
sg6
(lp528
(dp529
g9
I0
sg10
VC0014474
p530
sg12
I10
sg13
VEpendymoma
p531
sg15
I1
sasa(dp532
g2
S'Esophageal Atresia is an entity.'
p533
sg4
(lp534
sg6
(lp535
(dp536
g9
I0
sg10
VC0014850
p537
sg12
I18
sg13
VEsophageal Atresia
p538
sg15
I2
sasa(dp539
g2
S'Esophageal Diseases is an entity.'
p540
sg4
(lp541
sg6
(lp542
(dp543
g9
I0
sg10
VC0014852
p544
sg12
I19
sg13
VEsophageal Diseases
p545
sg15
I2
sasa(dp546
g2
S'Esophageal Stenosis is an entity.'
p547
sg4
(lp548
sg6
(lp549
(dp550
g9
I0
sg10
VC0014866
p551
sg12
I19
sg13
VEsophageal Stenosis
p552
sg15
I2
sasa(dp553
g2
S'Esophageal Varices is an entity. \n'
p554
sg4
(lp555
sg6
(lp556
(dp557
g9
I0
sg10
VC0014867
p558
sg12
I18
sg13
VEsophageal Varices
p559
sg15
I2
sasa(dp560
g2
S'Exotropia is an entity.'
p561
sg4
(lp562
sg6
(lp563
(dp564
g9
I0
sg10
VC0015310
p565
sg12
I9
sg13
VExotropia
p566
sg15
I1
sasa(dp567
g2
S'Disorder of eye is an entity.'
p568
sg4
(lp569
sg6
(lp570
(dp571
g9
I0
sg10
VC0015397
p572
sg12
I15
sg13
VDisorder of eye
p573
sg15
I3
sasa(dp574
g2
S'Factor V Deficiency is an entity.'
p575
sg4
(lp576
sg6
(lp577
(dp578
g9
I0
sg10
VC0015499
p579
sg12
I19
sg13
VFactor V Deficiency
p580
sg15
I3
sasa(dp581
g2
S'Factor X Deficiency is an entity.'
p582
sg4
(lp583
(dp584
g9
I0
sS'uniprot'
p585
S''
p586
sg12
I8
sg13
VFactor X
p587
sg15
I2
sasg6
(lp588
(dp589
g9
I0
sg10
VC0015519
p590
sg12
I19
sg13
VFactor X Deficiency
p591
sg15
I3
sasa(dp592
g2
S'Fanconi Anemia is an entity.'
p593
sg4
(lp594
sg6
(lp595
(dp596
g9
I0
sg10
VC3469521
p597
sg12
I14
sg13
VFanconi Anemia
p598
sg15
I2
sasa(dp599
g2
S'Femur Head Necrosis is an entity.'
p600
sg4
(lp601
sg6
(lp602
(dp603
g9
I0
sg10
VC0015814
p604
sg12
I19
sg13
VFemur Head Necrosis
p605
sg15
I3
sasa(dp606
g2
S'Periodic fever is an entity.'
p607
sg4
(lp608
sg6
(lp609
(dp610
g9
I0
sg10
VC0015974
p611
sg12
I14
sg13
VPeriodic fever
p612
sg15
I2
sasa(dp613
g2
S'Breast Fibrocystic Disease is an entity.'
p614
sg4
(lp615
sg6
(lp616
(dp617
g9
I0
sg10
VC0016034
p618
sg12
I26
sg13
VBreast Fibrocystic Disease
p619
sg15
I3
sasa(dp620
g2
S'Polyostotic fibrous dysplasia is an entity.'
p621
sg4
(lp622
sg6
(lp623
(dp624
g9
I0
sg10
VC0016065
p625
sg12
I29
sg13
VPolyostotic fibrous dysplasia
p626
sg15
I3
sasa(dp627
g2
S"Fuchs' heterochromic cyclitis is an entity. \n"
p628
sg4
(lp629
sg6
(lp630
(dp631
g9
I0
sg10
VC0016782
p632
sg12
I29
sg13
VFuchs' heterochromic cyclitis
p633
sg15
I3
sasa(dp634
g2
S'Fucosidase Deficiency Disease is an entity.'
p635
sg4
(lp636
(dp637
g9
I0
sg585
VP04066
p638
sg12
I10
sg13
VFucosidase
p639
sg15
I1
sasg6
(lp640
(dp641
g9
I0
sg10
VC0016788
p642
sg12
I29
sg13
VFucosidase Deficiency Disease
p643
sg15
I3
sasa(dp644
g2
S'Galactosemias is an entity.'
p645
sg4
(lp646
sg6
(lp647
(dp648
g9
I0
sg10
VC0016952
p649
sg12
I13
sg13
VGalactosemias
p650
sg15
I1
sasa(dp651
g2
S'Generalized atherosclerosis is an entity.'
p652
sg4
(lp653
sg6
(lp654
(dp655
g9
I0
sg10
VC0017327
p656
sg12
I27
sg13
VGeneralized atherosclerosis
p657
sg15
I2
sasa(dp658
g2
S'Genital Neoplasms, Female is an entity.'
p659
sg4
(lp660
sg6
(lp661
(dp662
g9
I0
sg10
VC0017416
p663
sg12
I25
sg13
VGenital Neoplasms, Female
p664
sg15
I3
sasa(dp665
g2
S'Gerstmann-Straussler-Scheinker Disease is an entity.'
p666
sg4
(lp667
sg6
(lp668
(dp669
g9
I0
sg10
VC0017495
p670
sg12
I38
sg13
VGerstmann-Straussler-Scheinker Disease
p671
sg15
I2
sasa(dp672
g2
S'Gigantism is an entity.'
p673
sg4
(lp674
sg6
(lp675
(dp676
g9
I0
sg10
VC0017547
p677
sg12
I9
sg13
VGigantism
p678
sg15
I1
sasa(dp679
g2
S'Glycogen Storage Disease Type V is an entity.'
p680
sg4
(lp681
sg6
(lp682
(dp683
g9
I0
sg10
VC0017924
p684
sg12
I31
sg13
VGlycogen Storage Disease Type V
p685
sg15
I5
sasa(dp686
g2
S'Nodular Goiter is an entity.'
p687
sg4
(lp688
sg6
(lp689
(dp690
g9
I0
sg10
VC1318500
p691
sg12
I14
sg13
VNodular Goiter
p692
sg15
I2
sasa(dp693
g2
S'Granuloma is an entity.'
p694
sg4
(lp695
sg6
(lp696
(dp697
g9
I0
sg10
VC0018188
p698
sg12
I9
sg13
VGranuloma
p699
sg15
I1
sasa(dp700
g2
S'Giant Cell Granuloma is an entity. \n'
p701
sg4
(lp702
sg6
(lp703
(dp704
g9
I0
sg10
VC0018194
p705
sg12
I20
sg13
VGiant Cell Granuloma
p706
sg15
I3
sasa(dp707
g2
S'Haemophilus Infections is an entity.'
p708
sg4
(lp709
sg6
(lp710
(dp711
g9
I0
sg10
VC0018482
p712
sg12
I22
sg13
VHaemophilus Infections
p713
sg15
I2
sasa(dp714
g2
S'Head and Neck Neoplasms is an entity.'
p715
sg4
(lp716
sg6
(lp717
(dp718
g9
I0
sg10
VC0018671
p719
sg12
I23
sg13
VHead and Neck Neoplasms
p720
sg15
I4
sasa(dp721
g2
S'Head Banging is an entity.'
p722
sg4
(lp723
sg6
(lp724
(dp725
g9
I0
sg10
VC0018672
p726
sg12
I12
sg13
VHead Banging
p727
sg15
I2
sasa(dp728
g2
S'Hearing Loss, Bilateral is an entity.'
p729
sg4
(lp730
sg6
(lp731
(dp732
g9
I0
sg10
VC0018775
p733
sg12
I23
sg13
VHearing Loss, Bilateral
p734
sg15
I3
sasa(dp735
g2
S'Congestive heart failure is an entity.'
p736
sg4
(lp737
sg6
(lp738
(dp739
g9
I0
sg10
VC0018802
p740
sg12
I24
sg13
VCongestive heart failure
p741
sg15
I3
sasa(dp742
g2
S'Heart murmur is an entity.'
p743
sg4
(lp744
sg6
(lp745
sa(dp746
g2
S"Heberden's node is an entity."
p747
sg4
(lp748
sg6
(lp749
sa(dp750
g2
S'Hematoma, Subdural is an entity.'
p751
sg4
(lp752
sg6
(lp753
(dp754
g9
I0
sg10
VC0018946
p755
sg12
I18
sg13
VHematoma, Subdural
p756
sg15
I2
sasa(dp757
g2
S'Hemeralopia is an entity.'
p758
sg4
(lp759
sg6
(lp760
(dp761
g9
I0
sg10
VC0018975
p762
sg12
I11
sg13
VHemeralopia
p763
sg15
I1
sasa(dp764
g2
S'Hemiplegia is an entity. \n'
p765
sg4
(lp766
sg6
(lp767
(dp768
g9
I0
sg10
VC0018991
p769
sg12
I10
sg13
VHemiplegia
p770
sg15
I1
sasa(dp771
g2
S'Hemoglobin SC Disease is an entity.'
p772
sg4
(lp773
(dp774
g9
I0
sg585
g586
sg12
I10
sg13
VHemoglobin
p775
sg15
I1
sasg6
(lp776
(dp777
g9
I0
sg10
VC0019034
p778
sg12
I21
sg13
VHemoglobin SC Disease
p779
sg15
I3
sasa(dp780
g2
S'Hemolytic-Uremic Syndrome is an entity.'
p781
sg4
(lp782
sg6
(lp783
(dp784
g9
I0
sg10
VC0019061
p785
sg12
I25
sg13
VHemolytic-Uremic Syndrome
p786
sg15
I2
sasa(dp787
g2
S'Hemorrhagic ascites is an entity.'
p788
sg4
(lp789
sg6
(lp790
(dp791
g9
I0
sg10
VC0019086
p792
sg12
I19
sg13
VHemorrhagic ascites
p793
sg15
I2
sasa(dp794
g2
S'Hemosiderosis is an entity.'
p795
sg4
(lp796
sg6
(lp797
(dp798
g9
I0
sg10
VC0019114
p799
sg12
I13
sg13
VHemosiderosis
p800
sg15
I1
sasa(dp801
g2
S'Hepatitis is an entity.'
p802
sg4
(lp803
sg6
(lp804
(dp805
g9
I0
sg10
VC0019159
p806
sg12
I9
sg13
VHepatitis
p807
sg15
I1
sasa(dp808
g2
S'Hepatitis, Chronic is an entity.'
p809
sg4
(lp810
sg6
(lp811
(dp812
g9
I0
sg10
VC0019189
p813
sg12
I18
sg13
VHepatitis, Chronic
p814
sg15
I2
sasa(dp815
g2
S'Hepatorenal Syndrome is an entity.'
p816
sg4
(lp817
sg6
(lp818
(dp819
g9
I0
sg10
VC0019212
p820
sg12
I20
sg13
VHepatorenal Syndrome
p821
sg15
I2
sasa(dp822
g2
S'Angioedemas, Hereditary is an entity.'
p823
sg4
(lp824
sg6
(lp825
(dp826
g9
I0
sg10
VC0019243
p827
sg12
I23
sg13
VAngioedemas, Hereditary
p828
sg15
I2
sasa(dp829
g2
S'herpes is an entity.'
p830
sg4
(lp831
sg6
(lp832
(dp833
g9
I0
sg10
VC0019340
p834
sg12
I6
sg13
Vherpes
p835
sg15
I1
sasa(dp836
g2
S'Genital Herpes is an entity. \n'
p837
sg4
(lp838
sg6
(lp839
(dp840
g9
I0
sg10
VC0019342
p841
sg12
I14
sg13
VGenital Herpes
p842
sg15
I2
sasa(dp843
g2
S'Pemphigoid Gestationis is an entity.'
p844
sg4
(lp845
sg6
(lp846
(dp847
g9
I0
sg10
VC0019343
p848
sg12
I22
sg13
VPemphigoid Gestationis
p849
sg15
I2
sasa(dp850
g2
S'Keratitis, Herpetic is an entity.'
p851
sg4
(lp852
sg6
(lp853
(dp854
g9
I0
sg10
VC0019357
p855
sg12
I19
sg13
VKeratitis, Herpetic
p856
sg15
I2
sasa(dp857
g2
S'Hiccup is an entity.'
p858
sg4
(lp859
sg6
(lp860
sa(dp861
g2
S'Hip Dislocation, Congenital is an entity.'
p862
sg4
(lp863
sg6
(lp864
(dp865
g9
I0
sg10
VC0019555
p866
sg12
I27
sg13
VHip Dislocation, Congenital
p867
sg15
I3
sasa(dp868
g2
S'Hirsutism is an entity.'
p869
sg4
(lp870
sg6
(lp871
sa(dp872
g2
S'Hodgkin Disease is an entity.'
p873
sg4
(lp874
sg6
(lp875
(dp876
g9
I0
sg10
VC0019829
p877
sg12
I15
sg13
VHodgkin Disease
p878
sg15
I2
sasa(dp879
g2
S'Hydrophthalmos is an entity.'
p880
sg4
(lp881
sg6
(lp882
(dp883
g9
I0
sg10
VC0020302
p884
sg12
I14
sg13
VHydrophthalmos
p885
sg15
I1
sasa(dp886
g2
S'Hyperalgesia is an entity.'
p887
sg4
(lp888
sg6
(lp889
(dp890
g9
I0
sg10
VC0020429
p891
sg12
I12
sg13
VHyperalgesia
p892
sg15
I1
sasa(dp893
g2
S'Hypercalciuria is an entity.'
p894
sg4
(lp895
sg6
(lp896
(dp897
g9
I0
sg10
VC0020438
p898
sg12
I14
sg13
VHypercalciuria
p899
sg15
I1
sasa(dp900
g2
S'Primary Hyperoxaluria is an entity. \n'
p901
sg4
(lp902
sg6
(lp903
(dp904
g9
I0
sg10
VC0020501
p905
sg12
I21
sg13
VPrimary Hyperoxaluria
p906
sg15
I2
sasa(dp907
g2
S'Hyperphagia is an entity.'
p908
sg4
(lp909
sg6
(lp910
(dp911
g9
I0
sg10
VC0020505
p912
sg12
I11
sg13
VHyperphagia
p913
sg15
I1
sasa(dp914
g2
S'Hyperventilation is an entity.'
p915
sg4
(lp916
sg6
(lp917
sa(dp918
g2
S'Hypocalcemia is an entity.'
p919
sg4
(lp920
sg6
(lp921
(dp922
g9
I0
sg10
VC0020598
p923
sg12
I12
sg13
VHypocalcemia
p924
sg15
I1
sasa(dp925
g2
S'Hypohidrosis is an entity.'
p926
sg4
(lp927
sg6
(lp928
(dp929
g9
I0
sg10
VC0020620
p930
sg12
I12
sg13
VHypohidrosis
p931
sg15
I1
sasa(dp932
g2
S'Hypoparathyroidism is an entity.'
p933
sg4
(lp934
sg6
(lp935
(dp936
g9
I0
sg10
VC0020626
p937
sg12
I18
sg13
VHypoparathyroidism
p938
sg15
I1
sasa(dp939
g2
S'Ileal Diseases is an entity.'
p940
sg4
(lp941
sg6
(lp942
(dp943
g9
I0
sg10
VC0020875
p944
sg12
I14
sg13
VIleal Diseases
p945
sg15
I2
sasa(dp946
g2
S'Immune System Diseases is an entity.'
p947
sg4
(lp948
sg6
(lp949
(dp950
g9
I0
sg10
VC0021053
p951
sg12
I22
sg13
VImmune System Diseases
p952
sg15
I3
sasa(dp953
g2
S'Impetigo is an entity.'
p954
sg4
(lp955
sg6
(lp956
(dp957
g9
I0
sg10
VC0021099
p958
sg12
I8
sg13
VImpetigo
p959
sg15
I1
sasa(dp960
g2
S'Intestinal Diseases, Parasitic is an entity.'
p961
sg4
(lp962
sg6
(lp963
(dp964
g9
I0
sg10
VC0021832
p965
sg12
I30
sg13
VIntestinal Diseases, Parasitic
p966
sg15
I3
sasa(dp967
g2
S'Incontinentia Pigmenti Achromians is an entity. \n'
p968
sg4
(lp969
sg6
(lp970
(dp971
g9
I0
sg10
VC0022283
p972
sg12
I33
sg13
VIncontinentia Pigmenti Achromians
p973
sg15
I3
sasa(dp974
g2
S'Jaw Cysts is an entity.'
p975
sg4
(lp976
sg6
(lp977
(dp978
g9
I0
sg10
VC0022361
p979
sg12
I9
sg13
VJaw Cysts
p980
sg15
I2
sasa(dp981
g2
S'Arthropathy is an entity.'
p982
sg4
(lp983
sg6
(lp984
(dp985
g9
I0
sg10
VC0022408
p986
sg12
I11
sg13
VArthropathy
p987
sg15
I1
sasa(dp988
g2
S'keratoacanthoma is an entity.'
p989
sg4
(lp990
sg6
(lp991
(dp992
g9
I0
sg10
VC0022572
p993
sg12
I15
sg13
Vkeratoacanthoma
p994
sg15
I1
sasa(dp995
g2
S'Keratoderma, Palmoplantar, Diffuse is an entity.'
p996
sg4
(lp997
sg6
(lp998
(dp999
g9
I0
sg10
VC0022584
p1000
sg12
I34
sg13
VKeratoderma, Palmoplantar, Diffuse
p1001
sg15
I3
sasa(dp1002
g2
S'Keratosis Follicularis is an entity.'
p1003
sg4
(lp1004
sg6
(lp1005
(dp1006
g9
I0
sg10
VC0022595
p1007
sg12
I22
sg13
VKeratosis Follicularis
p1008
sg15
I2
sasa(dp1009
g2
S'Kidney Failure, Acute is an entity.'
p1010
sg4
(lp1011
sg6
(lp1012
(dp1013
g9
I0
sg10
VC0022660
p1014
sg12
I21
sg13
VKidney Failure, Acute
p1015
sg15
I3
sasa(dp1016
g2
S'Acute Kidney Tubular Necrosis is an entity.'
p1017
sg4
(lp1018
sg6
(lp1019
(dp1020
g9
I0
sg10
VC0022672
p1021
sg12
I29
sg13
VAcute Kidney Tubular Necrosis
p1022
sg15
I4
sasa(dp1023
g2
S'Menkes Kinky Hair Syndrome is an entity.'
p1024
sg4
(lp1025
sg6
(lp1026
(dp1027
g9
I0
sg10
VC0022716
p1028
sg12
I26
sg13
VMenkes Kinky Hair Syndrome
p1029
sg15
I4
sasa(dp1030
g2
S'Leishmaniasis, Visceral is an entity.'
p1031
sg4
(lp1032
sg6
(lp1033
(dp1034
g9
I0
sg10
VC0023290
p1035
sg12
I23
sg13
VLeishmaniasis, Visceral
p1036
sg15
I2
sasa(dp1037
g2
S'Tuberculoid leprosy is an entity. \n'
p1038
sg4
(lp1039
sg6
(lp1040
(dp1041
g9
I0
sg10
VC0023351
p1042
sg12
I19
sg13
VTuberculoid leprosy
p1043
sg15
I2
sasa(dp1044
g2
S'Letterer-Siwe Disease is an entity.'
p1045
sg4
(lp1046
sg6
(lp1047
(dp1048
g9
I0
sg10
VC0023381
p1049
sg12
I21
sg13
VLetterer-Siwe Disease
p1050
sg15
I2
sasa(dp1051
g2
S'Acute biphenotypic leukemia is an entity.'
p1052
sg4
(lp1053
sg6
(lp1054
(dp1055
g9
I0
sg10
VC0023464
p1056
sg12
I27
sg13
VAcute biphenotypic leukemia
p1057
sg15
I3
sasa(dp1058
g2
S'Prolymphocytic Leukemia is an entity.'
p1059
sg4
(lp1060
sg6
(lp1061
(dp1062
g9
I0
sg10
VC0023486
p1063
sg12
I23
sg13
VProlymphocytic Leukemia
p1064
sg15
I2
sasa(dp1065
g2
S'Leukodystrophy, Metachromatic is an entity.'
p1066
sg4
(lp1067
sg6
(lp1068
(dp1069
g9
I0
sg10
VC0023522
p1070
sg12
I29
sg13
VLeukodystrophy, Metachromatic
p1071
sg15
I2
sasa(dp1072
g2
S'Lichen Planus is an entity.'
p1073
sg4
(lp1074
sg6
(lp1075
(dp1076
g9
I0
sg10
VC0023646
p1077
sg12
I13
sg13
VLichen Planus
p1078
sg15
I2
sasa(dp1079
g2
S'Mucopolysaccharidosis I is an entity.'
p1080
sg4
(lp1081
sg6
(lp1082
(dp1083
g9
I0
sg10
VC0023786
p1084
sg12
I23
sg13
VMucopolysaccharidosis I
p1085
sg15
I2
sasa(dp1086
g2
S'Lipomucopolysaccharidosis is an entity.'
p1087
sg4
(lp1088
sg6
(lp1089
(dp1090
g9
I0
sg10
VC0023806
p1091
sg12
I25
sg13
VLipomucopolysaccharidosis
p1092
sg15
I1
sasa(dp1093
g2
S'Hyperlipoproteinemia Type I is an entity.'
p1094
sg4
(lp1095
sg6
(lp1096
(dp1097
g9
I0
sg10
VC0023817
p1098
sg12
I27
sg13
VHyperlipoproteinemia Type I
p1099
sg15
I3
sasa(dp1100
g2
S'Liver Cirrhosis is an entity.'
p1101
sg4
(lp1102
sg6
(lp1103
(dp1104
g9
I0
sg10
VC0023890
p1105
sg12
I15
sg13
VLiver Cirrhosis
p1106
sg15
I2
sasa(dp1107
g2
S'Biliary cirrhosis is an entity. \n'
p1108
sg4
(lp1109
sg6
(lp1110
(dp1111
g9
I0
sg10
VC0023892
p1112
sg12
I17
sg13
VBiliary cirrhosis
p1113
sg15
I2
sasa(dp1114
g2
S'Low Back Pain is an entity.'
p1115
sg4
(lp1116
sg6
(lp1117
(dp1118
g9
I0
sg10
VC0024031
p1119
sg12
I13
sg13
VLow Back Pain
p1120
sg15
I3
sasa(dp1121
g2
S'Luteoma is an entity.'
p1122
sg4
(lp1123
sg6
(lp1124
(dp1125
g9
I0
sg10
VC0024167
p1126
sg12
I7
sg13
VLuteoma
p1127
sg15
I1
sasa(dp1128
g2
S'Lymphocytosis is an entity.'
p1129
sg4
(lp1130
sg6
(lp1131
(dp1132
g9
I0
sg10
VC0024282
p1133
sg12
I13
sg13
VLymphocytosis
p1134
sg15
I1
sasa(dp1135
g2
S'Lymphoma, Follicular is an entity.'
p1136
sg4
(lp1137
sg6
(lp1138
(dp1139
g9
I0
sg10
VC0024301
p1140
sg12
I20
sg13
VLymphoma, Follicular
p1141
sg15
I2
sasa(dp1142
g2
S'Macular Holes is an entity.'
p1143
sg4
(lp1144
sg6
(lp1145
(dp1146
g9
I0
sg10
VC0024441
p1147
sg12
I13
sg13
VMacular Holes
p1148
sg15
I2
sasa(dp1149
g2
S'Primary malignant neoplasm of liver is an entity.'
p1150
sg4
(lp1151
sg6
(lp1152
(dp1153
g9
I0
sg10
VC0024620
p1154
sg12
I35
sg13
VPrimary malignant neoplasm of liver
p1155
sg15
I5
sasa(dp1156
g2
S'Marinesco-Sjogren syndrome is an entity.'
p1157
sg4
(lp1158
sg6
(lp1159
(dp1160
g9
I0
sg10
VC0024814
p1161
sg12
I26
sg13
VMarinesco-Sjogren syndrome
p1162
sg15
I2
sasa(dp1163
g2
S'Maxillary Sinusitis is an entity.'
p1164
sg4
(lp1165
sg6
(lp1166
(dp1167
g9
I0
sg10
VC0024959
p1168
sg12
I19
sg13
VMaxillary Sinusitis
p1169
sg15
I2
sasa(dp1170
g2
S'Measles is an entity.'
p1171
sg4
(lp1172
sg6
(lp1173
(dp1174
g9
I0
sg10
VC0025007
p1175
sg12
I7
sg13
VMeasles
p1176
sg15
I1
sasa(dp1177
g2
S'Medulloblastoma is an entity. \n'
p1178
sg4
(lp1179
sg6
(lp1180
(dp1181
g9
I0
sg10
VC0025149
p1182
sg12
I15
sg13
VMedulloblastoma
p1183
sg15
I1
sasa(dp1184
g2
S'Meige Syndrome is an entity.'
p1185
sg4
(lp1186
sg6
(lp1187
(dp1188
g9
I0
sg10
VC0025183
p1189
sg12
I14
sg13
VMeige Syndrome
p1190
sg15
I2
sasa(dp1191
g2
S'melanoma is an entity.'
p1192
sg4
(lp1193
sg6
(lp1194
(dp1195
g9
I0
sg10
VC0025202
p1196
sg12
I8
sg13
Vmelanoma
p1197
sg15
I1
sasa(dp1198
g2
S'Melanoma, Experimental is an entity.'
p1199
sg4
(lp1200
sg6
(lp1201
(dp1202
g9
I0
sg10
VC0025205
p1203
sg12
I22
sg13
VMelanoma, Experimental
p1204
sg15
I2
sasa(dp1205
g2
S'Melanosis is an entity.'
p1206
sg4
(lp1207
sg6
(lp1208
(dp1209
g9
I0
sg10
VC0221391
p1210
sg12
I9
sg13
VMelanosis
p1211
sg15
I1
sasa(dp1212
g2
S'Meleda Disease is an entity.'
p1213
sg4
(lp1214
sg6
(lp1215
(dp1216
g9
I0
sg10
VC0025221
p1217
sg12
I14
sg13
VMeleda Disease
p1218
sg15
I2
sasa(dp1219
g2
S'Meniere Disease is an entity.'
p1220
sg4
(lp1221
sg6
(lp1222
(dp1223
g9
I0
sg10
VC0025281
p1224
sg12
I15
sg13
VMeniere Disease
p1225
sg15
I2
sasa(dp1226
g2
S'Meningism is an entity.'
p1227
sg4
(lp1228
sg6
(lp1229
(dp1230
g9
I0
sg10
VC0025287
p1231
sg12
I9
sg13
VMeningism
p1232
sg15
I1
sasa(dp1233
g2
S'Meningococcal meningitis is an entity.'
p1234
sg4
(lp1235
sg6
(lp1236
(dp1237
g9
I0
sg10
VC0025294
p1238
sg12
I24
sg13
VMeningococcal meningitis
p1239
sg15
I2
sasa(dp1240
g2
S'Meningitis, Pneumococcal is an entity.'
p1241
sg4
(lp1242
sg6
(lp1243
(dp1244
g9
I0
sg10
VC0025295
p1245
sg12
I24
sg13
VMeningitis, Pneumococcal
p1246
sg15
I2
sasa(dp1247
g2
S'Meningomyelocele is an entity. \n'
p1248
sg4
(lp1249
sg6
(lp1250
(dp1251
g9
I0
sg10
VC0025312
p1252
sg12
I16
sg13
VMeningomyelocele
p1253
sg15
I1
sasa(dp1254
g2
S'Menorrhagia is an entity.'
p1255
sg4
(lp1256
sg6
(lp1257
(dp1258
g9
I0
sg10
VC0025323
p1259
sg12
I11
sg13
VMenorrhagia
p1260
sg15
I1
sasa(dp1261
g2
S'Metaplasia is an entity.'
p1262
sg4
(lp1263
sg6
(lp1264
(dp1265
g9
I0
sg10
VC0025568
p1266
sg12
I10
sg13
VMetaplasia
p1267
sg15
I1
sasa(dp1268
g2
S'Mild Mental Retardation is an entity.'
p1269
sg4
(lp1270
sg6
(lp1271
(dp1272
g9
I0
sg10
VC0026106
p1273
sg12
I23
sg13
VMild Mental Retardation
p1274
sg15
I3
sasa(dp1275
g2
S'Morphine Dependence is an entity.'
p1276
sg4
(lp1277
sg6
(lp1278
(dp1279
g9
I0
sg10
VC0026552
p1280
sg12
I19
sg13
VMorphine Dependence
p1281
sg15
I2
sasa(dp1282
g2
S'Mouth Diseases is an entity.'
p1283
sg4
(lp1284
sg6
(lp1285
(dp1286
g9
I0
sg10
VC0026636
p1287
sg12
I14
sg13
VMouth Diseases
p1288
sg15
I2
sasa(dp1289
g2
S'Mucopolysaccharidosis IV is an entity.'
p1290
sg4
(lp1291
sg6
(lp1292
(dp1293
g9
I0
sg10
VC0026707
p1294
sg12
I24
sg13
VMucopolysaccharidosis IV
p1295
sg15
I2
sasa(dp1296
g2
S'Muscular Dystrophy, Animal is an entity.'
p1297
sg4
(lp1298
sg6
(lp1299
(dp1300
g9
I0
sg10
VC0026850
p1301
sg12
I18
sg13
VMuscular Dystrophy
p1302
sg15
I2
sasa(dp1303
g2
S'Musculoskeletal Pain is an entity.'
p1304
sg4
(lp1305
sg6
(lp1306
sa(dp1307
g2
S'Mycoplasma Infections is an entity.'
p1308
sg4
(lp1309
sg6
(lp1310
(dp1311
g9
I0
sg10
VC0026936
p1312
sg12
I21
sg13
VMycoplasma Infections
p1313
sg15
I2
sasa(dp1314
g2
S'Acute Myeloid Leukemia, M1 is an entity. \n'
p1315
sg4
(lp1316
sg6
(lp1317
(dp1318
g9
I0
sg10
VC0026998
p1319
sg12
I26
sg13
VAcute Myeloid Leukemia, M1
p1320
sg15
I4
sasa(dp1321
g2
S'Myoma is an entity.'
p1322
sg4
(lp1323
sg6
(lp1324
(dp1325
g9
I0
sg10
VC0027086
p1326
sg12
I5
sg13
VMyoma
p1327
sg15
I1
sasa(dp1328
g2
S'Myosarcoma is an entity.'
p1329
sg4
(lp1330
sg6
(lp1331
(dp1332
g9
I0
sg10
VC0027095
p1333
sg12
I10
sg13
VMyosarcoma
p1334
sg15
I1
sasa(dp1335
g2
S'Nausea is an entity.'
p1336
sg4
(lp1337
sg6
(lp1338
(dp1339
g9
I0
sg10
VC0027497
p1340
sg12
I6
sg13
VNausea
p1341
sg15
I1
sasa(dp1342
g2
S'Neck Neoplasms is an entity.'
p1343
sg4
(lp1344
sg6
(lp1345
(dp1346
g9
I0
sg10
VC0027533
p1347
sg12
I14
sg13
VNeck Neoplasms
p1348
sg15
I2
sasa(dp1349
g2
S'Neoplasm Metastasis is an entity.'
p1350
sg4
(lp1351
sg6
(lp1352
(dp1353
g9
I0
sg10
VC0027627
p1354
sg12
I19
sg13
VNeoplasm Metastasis
p1355
sg15
I2
sasa(dp1356
g2
S'Neuralgia is an entity.'
p1357
sg4
(lp1358
sg6
(lp1359
(dp1360
g9
I0
sg10
VC0027796
p1361
sg12
I9
sg13
VNeuralgia
p1362
sg15
I1
sasa(dp1363
g2
S'Neuroma is an entity.'
p1364
sg4
(lp1365
sg6
(lp1366
(dp1367
g9
I0
sg10
VC0027858
p1368
sg12
I7
sg13
VNeuroma
p1369
sg15
I1
sasa(dp1370
g2
S'Nicotine Dependence is an entity.'
p1371
sg4
(lp1372
sg6
(lp1373
(dp1374
g9
I0
sg10
VC0028043
p1375
sg12
I19
sg13
VNicotine Dependence
p1376
sg15
I2
sasa(dp1377
g2
S'Nicotine withdrawal is an entity.'
p1378
sg4
(lp1379
sg6
(lp1380
(dp1381
g9
I0
sg10
VC0028047
p1382
sg12
I19
sg13
VNicotine withdrawal
p1383
sg15
I2
sasa(dp1384
g2
S'Nose Neoplasms is an entity. \n'
p1385
sg4
(lp1386
sg6
(lp1387
(dp1388
g9
I0
sg10
VC0028433
p1389
sg12
I14
sg13
VNose Neoplasms
p1390
sg15
I2
sasa(dp1391
g2
S'Occupational Diseases is an entity.'
p1392
sg4
(lp1393
sg6
(lp1394
(dp1395
g9
I0
sg10
VC0028797
p1396
sg12
I21
sg13
VOccupational Diseases
p1397
sg15
I2
sasa(dp1398
g2
S'Odontogenic Cysts is an entity.'
p1399
sg4
(lp1400
sg6
(lp1401
(dp1402
g9
I0
sg10
VC0028879
p1403
sg12
I17
sg13
VOdontogenic Cysts
p1404
sg15
I2
sasa(dp1405
g2
S'Ophthalmia, Sympathetic is an entity.'
p1406
sg4
(lp1407
sg6
(lp1408
(dp1409
g9
I0
sg10
VC0029077
p1410
sg12
I23
sg13
VOphthalmia, Sympathetic
p1411
sg15
I2
sasa(dp1412
g2
S'Opioid abuse is an entity.'
p1413
sg4
(lp1414
sg6
(lp1415
(dp1416
g9
I0
sg10
VC0029095
p1417
sg12
I12
sg13
VOpioid abuse
p1418
sg15
I2
sasa(dp1419
g2
S'Optic Atrophy is an entity.'
p1420
sg4
(lp1421
sg6
(lp1422
(dp1423
g9
I0
sg10
VC0029124
p1424
sg12
I13
sg13
VOptic Atrophy
p1425
sg15
I2
sasa(dp1426
g2
S'Osteitis Fibrosa Cystica is an entity.'
p1427
sg4
(lp1428
sg6
(lp1429
(dp1430
g9
I0
sg10
VC0029405
p1431
sg12
I24
sg13
VOsteitis Fibrosa Cystica
p1432
sg15
I3
sasa(dp1433
g2
S'Osteochondritis Dissecans is an entity.'
p1434
sg4
(lp1435
sg6
(lp1436
(dp1437
g9
I0
sg10
VC0029421
p1438
sg12
I25
sg13
VOsteochondritis Dissecans
p1439
sg15
I2
sasa(dp1440
g2
S'Osteomalacia is an entity.'
p1441
sg4
(lp1442
sg6
(lp1443
(dp1444
g9
I0
sg10
VC0029442
p1445
sg12
I12
sg13
VOsteomalacia
p1446
sg15
I1
sasa(dp1447
g2
S'Bone necrosis is an entity.'
p1448
sg4
(lp1449
sg6
(lp1450
(dp1451
g9
I0
sg10
VC0029445
p1452
sg12
I13
sg13
VBone necrosis
p1453
sg15
I2
sasa(dp1454
g2
S'Osteoporosis, Postmenopausal is an entity. \n'
p1455
sg4
(lp1456
sg6
(lp1457
(dp1458
g9
I0
sg10
VC0029458
p1459
sg12
I28
sg13
VOsteoporosis, Postmenopausal
p1460
sg15
I2
sasa(dp1461
g2
S'Otosclerosis is an entity.'
p1462
sg4
(lp1463
sg6
(lp1464
(dp1465
g9
I0
sg10
VC0029899
p1466
sg12
I12
sg13
VOtosclerosis
p1467
sg15
I1
sasa(dp1468
g2
S'Pain is an entity.'
p1469
sg4
(lp1470
sg6
(lp1471
sa(dp1472
g2
S'Paralytic Ileus is an entity.'
p1473
sg4
(lp1474
sg6
(lp1475
(dp1476
g9
I0
sg10
VC0030446
p1477
sg12
I15
sg13
VParalytic Ileus
p1478
sg15
I2
sasa(dp1479
g2
S'Paraneoplastic Syndromes is an entity.'
p1480
sg4
(lp1481
sg6
(lp1482
(dp1483
g9
I0
sg10
VC0030472
p1484
sg12
I24
sg13
VParaneoplastic Syndromes
p1485
sg15
I2
sasa(dp1486
g2
S'Paraproteinemias is an entity.'
p1487
sg4
(lp1488
sg6
(lp1489
(dp1490
g9
I0
sg10
VC0030489
p1491
sg12
I16
sg13
VParaproteinemias
p1492
sg15
I1
sasa(dp1493
g2
S'Pelvic Pain is an entity.'
p1494
sg4
(lp1495
sg6
(lp1496
(dp1497
g9
I0
sg10
VC0030794
p1498
sg12
I11
sg13
VPelvic Pain
p1499
sg15
I2
sasa(dp1500
g2
S'Peritoneal Diseases is an entity.'
p1501
sg4
(lp1502
sg6
(lp1503
(dp1504
g9
I0
sg10
VC0031142
p1505
sg12
I19
sg13
VPeritoneal Diseases
p1506
sg15
I2
sasa(dp1507
g2
S'Philadelphia Chromosome is an entity.'
p1508
sg4
(lp1509
sg6
(lp1510
(dp1511
g9
I0
sg10
VC0031526
p1512
sg12
I23
sg13
VPhiladelphia Chromosome
p1513
sg15
I2
sasa(dp1514
g2
S'Polymorphous light eruption is an entity.'
p1515
sg4
(lp1516
sg6
(lp1517
(dp1518
g9
I0
sg10
VC0031736
p1519
sg12
I27
sg13
VPolymorphous light eruption
p1520
sg15
I3
sasa(dp1521
g2
S'Pineal Gland Neoplasm is an entity. \n'
p1522
sg4
(lp1523
sg6
(lp1524
(dp1525
g9
I0
sg10
VC0031941
p1526
sg12
I21
sg13
VPineal Gland Neoplasm
p1527
sg15
I3
sasa(dp1528
g2
S'Placental Insufficiency is an entity.'
p1529
sg4
(lp1530
sg6
(lp1531
(dp1532
g9
I0
sg10
VC0032051
p1533
sg12
I23
sg13
VPlacental Insufficiency
p1534
sg15
I2
sasa(dp1535
g2
S'Plasmacytoma is an entity.'
p1536
sg4
(lp1537
sg6
(lp1538
(dp1539
g9
I0
sg10
VC0032131
p1540
sg12
I12
sg13
VPlasmacytoma
p1541
sg15
I1
sasa(dp1542
g2
S'Pneumonia is an entity.'
p1543
sg4
(lp1544
sg6
(lp1545
(dp1546
g9
I0
sg10
VC0032285
p1547
sg12
I9
sg13
VPneumonia
p1548
sg15
I1
sasa(dp1549
g2
S'Ectopic Pregnancy is an entity.'
p1550
sg4
(lp1551
sg6
(lp1552
(dp1553
g9
I0
sg10
VC0032987
p1554
sg12
I17
sg13
VEctopic Pregnancy
p1555
sg15
I2
sasa(dp1556
g2
S'Ptosis is an entity.'
p1557
sg4
(lp1558
sg6
(lp1559
(dp1560
g9
I0
sg10
VC0005745
p1561
sg12
I6
sg13
VPtosis
p1562
sg15
I1
sasa(dp1563
g2
S'Prosthesis Loosening is an entity.'
p1564
sg4
(lp1565
sg6
(lp1566
(dp1567
g9
I0
sg10
VC0033587
p1568
sg12
I20
sg13
VProsthesis Loosening
p1569
sg15
I2
sasa(dp1570
g2
S'Protein-Energy Malnutrition is an entity.'
p1571
sg4
(lp1572
sg6
(lp1573
(dp1574
g9
I0
sg10
VC0033677
p1575
sg12
I27
sg13
VProtein-Energy Malnutrition
p1576
sg15
I2
sasa(dp1577
g2
S'Protein-Losing Enteropathies is an entity.'
p1578
sg4
(lp1579
sg6
(lp1580
(dp1581
g9
I0
sg10
VC0033680
p1582
sg12
I28
sg13
VProtein-Losing Enteropathies
p1583
sg15
I2
sasa(dp1584
g2
S'Prurigo is an entity.'
p1585
sg4
(lp1586
sg6
(lp1587
(dp1588
g9
I0
sg10
VC0033771
p1589
sg12
I7
sg13
VPrurigo
p1590
sg15
I1
sasa(dp1591
g2
S'Psychomotor Performance is an entity. \n'
p1592
sg4
(lp1593
sg6
(lp1594
sa(dp1595
g2
S'Psychoses, Substance-Induced is an entity.'
p1596
sg4
(lp1597
sg6
(lp1598
(dp1599
g9
I0
sg10
VC0033941
p1600
sg12
I28
sg13
VPsychoses, Substance-Induced
p1601
sg15
I2
sasa(dp1602
g2
S'Psychosexual Disorders is an entity.'
p1603
sg4
(lp1604
sg6
(lp1605
(dp1606
g9
I0
sg10
VC0033953
p1607
sg12
I22
sg13
VPsychosexual Disorders
p1608
sg15
I2
sasa(dp1609
g2
S'Delayed Puberty is an entity.'
p1610
sg4
(lp1611
sg6
(lp1612
(dp1613
g9
I0
sg10
VC0034012
p1614
sg12
I15
sg13
VDelayed Puberty
p1615
sg15
I2
sasa(dp1616
g2
S'Pulmonary Edema is an entity.'
p1617
sg4
(lp1618
sg6
(lp1619
(dp1620
g9
I0
sg10
VC0034063
p1621
sg12
I15
sg13
VPulmonary Edema
p1622
sg15
I2
sasa(dp1623
g2
S'Pulpitis is an entity.'
p1624
sg4
(lp1625
sg6
(lp1626
(dp1627
g9
I0
sg10
VC0034103
p1628
sg12
I8
sg13
VPulpitis
p1629
sg15
I1
sasa(dp1630
g2
S'Pyelonephritis is an entity.'
p1631
sg4
(lp1632
sg6
(lp1633
(dp1634
g9
I0
sg10
VC0034186
p1635
sg12
I14
sg13
VPyelonephritis
p1636
sg15
I1
sasa(dp1637
g2
S'Pyruvate Metabolism, Inborn Errors is an entity.'
p1638
sg4
(lp1639
sg6
(lp1640
(dp1641
g9
I0
sg10
VC0034350
p1642
sg12
I34
sg13
VPyruvate Metabolism, Inborn Errors
p1643
sg15
I4
sasa(dp1644
g2
S'Rabies (disorder) is an entity.'
p1645
sg4
(lp1646
sg6
(lp1647
(dp1648
g9
I0
sg10
VC0034494
p1649
sg12
I6
sg13
VRabies
p1650
sg15
I1
sasa(dp1651
g2
S'Raynaud Phenomenon is an entity.'
p1652
sg4
(lp1653
sg6
(lp1654
(dp1655
g9
I0
sg10
VC0034735
p1656
sg12
I18
sg13
VRaynaud Phenomenon
p1657
sg15
I2
sasa(dp1658
g2
S'Rectal Diseases is an entity. \n'
p1659
sg4
(lp1660
sg6
(lp1661
(dp1662
g9
I0
sg10
VC0034882
p1663
sg12
I15
sg13
VRectal Diseases
p1664
sg15
I2
sasa(dp1665
g2
S'Rectal Neoplasms is an entity.'
p1666
sg4
(lp1667
sg6
(lp1668
(dp1669
g9
I0
sg10
VC0034885
p1670
sg12
I16
sg13
VRectal Neoplasms
p1671
sg15
I2
sasa(dp1672
g2
S'Rectal Prolapse is an entity.'
p1673
sg4
(lp1674
sg6
(lp1675
(dp1676
g9
I0
sg10
VC0034888
p1677
sg12
I15
sg13
VRectal Prolapse
p1678
sg15
I2
sasa(dp1679
g2
S'Retinal Hemorrhage is an entity.'
p1680
sg4
(lp1681
sg6
(lp1682
(dp1683
g9
I0
sg10
VC0035317
p1684
sg12
I18
sg13
VRetinal Hemorrhage
p1685
sg15
I2
sasa(dp1686
g2
S'Retinitis Pigmentosa is an entity.'
p1687
sg4
(lp1688
sg6
(lp1689
(dp1690
g9
I0
sg10
VC0035334
p1691
sg12
I20
sg13
VRetinitis Pigmentosa
p1692
sg15
I2
sasa(dp1693
g2
S'Rheumatic Heart Disease is an entity.'
p1694
sg4
(lp1695
sg6
(lp1696
(dp1697
g9
I0
sg10
VC0035439
p1698
sg12
I23
sg13
VRheumatic Heart Disease
p1699
sg15
I3
sasa(dp1700
g2
S'Rheumatoid Nodule is an entity.'
p1701
sg4
(lp1702
(dp1703
g9
I0
sg585
g586
sg12
I17
sg13
VRheumatoid Nodule
p1704
sg15
I2
sasg6
(lp1705
(dp1706
g9
I0
sg10
VC0035450
p1707
sg12
I17
sg13
VRheumatoid Nodule
p1708
sg15
I2
sasa(dp1709
g2
S'Rhinitis is an entity.'
p1710
sg4
(lp1711
sg6
(lp1712
(dp1713
g9
I0
sg10
VC0035455
p1714
sg12
I8
sg13
VRhinitis
p1715
sg15
I1
sasa(dp1716
g2
S'Rift Valley Fever is an entity.'
p1717
sg4
(lp1718
sg6
(lp1719
(dp1720
g9
I0
sg10
VC0035613
p1721
sg12
I17
sg13
VRift Valley Fever
p1722
sg15
I3
sasa(dp1723
g2
S'Sarcoidosis is an entity.'
p1724
sg4
(lp1725
sg6
(lp1726
(dp1727
g9
I0
sg10
VC0036202
p1728
sg12
I11
sg13
VSarcoidosis
p1729
sg15
I1
sasa(dp1730
g2
S'Sarcoma, Engelbreth-Holm-Swarm is an entity. \n'
p1731
sg4
(lp1732
sg6
(lp1733
(dp1734
g9
I0
sg10
VC0036214
p1735
sg12
I30
sg13
VSarcoma, Engelbreth-Holm-Swarm
p1736
sg15
I2
sasa(dp1737
g2
S'Mast-Cell Sarcoma is an entity.'
p1738
sg4
(lp1739
sg6
(lp1740
(dp1741
g9
I0
sg10
VC0036221
p1742
sg12
I17
sg13
VMast-Cell Sarcoma
p1743
sg15
I2
sasa(dp1744
g2
S'Paranoid Schizophrenia is an entity.'
p1745
sg4
(lp1746
sg6
(lp1747
(dp1748
g9
I0
sg10
VC0036349
p1749
sg12
I22
sg13
VParanoid Schizophrenia
p1750
sg15
I2
sasa(dp1751
g2
S'Schwartz-Jampel Syndrome is an entity.'
p1752
sg4
(lp1753
sg6
(lp1754
(dp1755
g9
I0
sg10
VC0036391
p1756
sg12
I24
sg13
VSchwartz-Jampel Syndrome
p1757
sg15
I2
sasa(dp1758
g2
S'Localized scleroderma is an entity.'
p1759
sg4
(lp1760
sg6
(lp1761
(dp1762
g9
I0
sg10
VC0036420
p1763
sg12
I21
sg13
VLocalized scleroderma
p1764
sg15
I2
sasa(dp1765
g2
S'Sebaceous Gland Diseases is an entity.'
p1766
sg4
(lp1767
sg6
(lp1768
(dp1769
g9
I0
sg10
VC0036502
p1770
sg12
I24
sg13
VSebaceous Gland Diseases
p1771
sg15
I3
sasa(dp1772
g2
S'Sexually Transmitted Diseases is an entity.'
p1773
sg4
(lp1774
sg6
(lp1775
(dp1776
g9
I0
sg10
VC0036916
p1777
sg12
I29
sg13
VSexually Transmitted Diseases
p1778
sg15
I3
sasa(dp1779
g2
S'Shock, Hemorrhagic is an entity.'
p1780
sg4
(lp1781
sg6
(lp1782
(dp1783
g9
I0
sg10
VC0036982
p1784
sg12
I18
sg13
VShock, Hemorrhagic
p1785
sg15
I2
sasa(dp1786
g2
S'Situs Inversus is an entity.'
p1787
sg4
(lp1788
sg6
(lp1789
(dp1790
g9
I0
sg10
VC0037221
p1791
sg12
I14
sg13
VSitus Inversus
p1792
sg15
I2
sasa(dp1793
g2
S'Splenic Infarction is an entity.'
p1794
sg4
(lp1795
sg6
(lp1796
(dp1797
g9
I0
sg10
VC0037998
p1798
sg12
I18
sg13
VSplenic Infarction
p1799
sg15
I2
sasa(dp1800
g2
S'Spotted fevers is an entity. \n'
p1801
sg4
(lp1802
sg6
(lp1803
(dp1804
g9
I0
sg10
VC0038041
p1805
sg12
I14
sg13
VSpotted fevers
p1806
sg15
I2
sasa(dp1807
g2
S'Staphylococcal Infections is an entity.'
p1808
sg4
(lp1809
sg6
(lp1810
(dp1811
g9
I0
sg10
VC0038160
p1812
sg12
I25
sg13
VStaphylococcal Infections
p1813
sg15
I2
sasa(dp1814
g2
S'Status Epilepticus is an entity.'
p1815
sg4
(lp1816
sg6
(lp1817
(dp1818
g9
I0
sg10
VC0038220
p1819
sg12
I18
sg13
VStatus Epilepticus
p1820
sg15
I2
sasa(dp1821
g2
S'Supernumerary structure is an entity.'
p1822
sg4
(lp1823
sg6
(lp1824
(dp1825
g9
I0
sg10
VC0038476
p1826
sg12
I23
sg13
VSupernumerary structure
p1827
sg15
I2
sasa(dp1828
g2
S'Submandibular Gland Diseases is an entity.'
p1829
sg4
(lp1830
sg6
(lp1831
(dp1832
g9
I0
sg10
VC0038557
p1833
sg12
I28
sg13
VSubmandibular Gland Diseases
p1834
sg15
I3
sasa(dp1835
g2
S'Subungual hyperkeratosis is an entity.'
p1836
sg4
(lp1837
sg6
(lp1838
(dp1839
g9
I0
sg10
VC0038605
p1840
sg12
I24
sg13
VSubungual hyperkeratosis
p1841
sg15
I2
sasa(dp1842
g2
S'Hereditary hemorrhagic telangiectasia is an entity.'
p1843
sg4
(lp1844
sg6
(lp1845
(dp1846
g9
I0
sg10
VC0039445
p1847
sg12
I37
sg13
VHereditary hemorrhagic telangiectasia
p1848
sg15
I3
sasa(dp1849
g2
S'Temporomandibular Joint Dysfunction Syndrome is an entity.'
p1850
sg4
(lp1851
sg6
(lp1852
(dp1853
g9
I0
sg10
VC0039496
p1854
sg12
I44
sg13
VTemporomandibular Joint Dysfunction Syndrome
p1855
sg15
I4
sasa(dp1856
g2
S'Tenosynovitis is an entity.'
p1857
sg4
(lp1858
sg6
(lp1859
(dp1860
g9
I0
sg10
VC0039520
p1861
sg12
I13
sg13
VTenosynovitis
p1862
sg15
I1
sasa(dp1863
g2
S'Teratoma is an entity.'
p1864
sg4
(lp1865
sg6
(lp1866
(dp1867
g9
I0
sg10
VC0039538
p1868
sg12
I8
sg13
VTeratoma
p1869
sg15
I1
sasa(dp1870
g2
S'Tetany is an entity. \n'
p1871
sg4
(lp1872
sg6
(lp1873
(dp1874
g9
I0
sg10
VC0039621
p1875
sg12
I6
sg13
VTetany
p1876
sg15
I1
sasa(dp1877
g2
S'Tetralogy of Fallot is an entity.'
p1878
sg4
(lp1879
sg6
(lp1880
(dp1881
g9
I0
sg10
VC0039685
p1882
sg12
I19
sg13
VTetralogy of Fallot
p1883
sg15
I3
sasa(dp1884
g2
S'Thoracic Diseases is an entity.'
p1885
sg4
(lp1886
sg6
(lp1887
(dp1888
g9
I0
sg10
VC0039978
p1889
sg12
I17
sg13
VThoracic Diseases
p1890
sg15
I2
sasa(dp1891
g2
S'Thrombasthenia is an entity.'
p1892
sg4
(lp1893
sg6
(lp1894
(dp1895
g9
I0
sg10
VC0040015
p1896
sg12
I14
sg13
VThrombasthenia
p1897
sg15
I1
sasa(dp1898
g2
S'Thrombocythemia, Essential is an entity.'
p1899
sg4
(lp1900
sg6
(lp1901
(dp1902
g9
I0
sg10
VC0040028
p1903
sg12
I26
sg13
VThrombocythemia, Essential
p1904
sg15
I2
sasa(dp1905
g2
S'Thrombocytopenia is an entity.'
p1906
sg4
(lp1907
sg6
(lp1908
sa(dp1909
g2
S'Tinea Versicolor is an entity.'
p1910
sg4
(lp1911
sg6
(lp1912
(dp1913
g9
I0
sg10
VC0040262
p1914
sg12
I16
sg13
VTinea Versicolor
p1915
sg15
I2
sasa(dp1916
g2
S'Fissured tongue is an entity.'
p1917
sg4
(lp1918
sg6
(lp1919
(dp1920
g9
I0
sg10
VC0040412
p1921
sg12
I15
sg13
VFissured tongue
p1922
sg15
I2
sasa(dp1923
g2
S'Septic Toxemia is an entity.'
p1924
sg4
(lp1925
sg6
(lp1926
(dp1927
g9
I0
sg10
VC0040524
p1928
sg12
I14
sg13
VSeptic Toxemia
p1929
sg15
I2
sasa(dp1930
g2
S'Toxoplasmosis is an entity.'
p1931
sg4
(lp1932
sg6
(lp1933
(dp1934
g9
I0
sg10
VC0040558
p1935
sg12
I13
sg13
VToxoplasmosis
p1936
sg15
I1
sasa(dp1937
g2
S'Trematode Infections is an entity. \n'
p1938
sg4
(lp1939
sg6
(lp1940
(dp1941
g9
I0
sg10
VC0040820
p1942
sg12
I20
sg13
VTrematode Infections
p1943
sg15
I2
sasa(dp1944
g2
S'Trichotillomania is an entity.'
p1945
sg4
(lp1946
sg6
(lp1947
(dp1948
g9
I0
sg10
VC0040953
p1949
sg12
I16
sg13
VTrichotillomania
p1950
sg15
I1
sasa(dp1951
g2
S'Tricuspid Valve Stenosis is an entity.'
p1952
sg4
(lp1953
sg6
(lp1954
(dp1955
g9
I0
sg10
VC0040963
p1956
sg12
I24
sg13
VTricuspid Valve Stenosis
p1957
sg15
I3
sasa(dp1958
g2
S'Lymph Node Tuberculosis is an entity.'
p1959
sg4
(lp1960
sg6
(lp1961
(dp1962
g9
I0
sg10
VC0041316
p1963
sg12
I23
sg13
VLymph Node Tuberculosis
p1964
sg15
I3
sasa(dp1965
g2
S'Pleural Tuberculosis is an entity.'
p1966
sg4
(lp1967
sg6
(lp1968
(dp1969
g9
I0
sg10
VC0041326
p1970
sg12
I20
sg13
VPleural Tuberculosis
p1971
sg15
I2
sasa(dp1972
g2
S'Tumor Lysis Syndrome is an entity.'
p1973
sg4
(lp1974
sg6
(lp1975
(dp1976
g9
I0
sg10
VC0041364
p1977
sg12
I20
sg13
VTumor Lysis Syndrome
p1978
sg15
I3
sasa(dp1979
g2
S'Turner Syndrome is an entity.'
p1980
sg4
(lp1981
sg6
(lp1982
(dp1983
g9
I0
sg10
VC0041408
p1984
sg12
I15
sg13
VTurner Syndrome
p1985
sg15
I2
sasa(dp1986
g2
S'Unconscious State is an entity.'
p1987
sg4
(lp1988
sg6
(lp1989
sa(dp1990
g2
S'Ureteral Neoplasms is an entity.'
p1991
sg4
(lp1992
sg6
(lp1993
(dp1994
g9
I0
sg10
VC0041955
p1995
sg12
I18
sg13
VUreteral Neoplasms
p1996
sg15
I2
sasa(dp1997
g2
S'Urologic Diseases is an entity.'
p1998
sg4
(lp1999
sg6
(lp2000
(dp2001
g9
I0
sg10
VC0042075
p2002
sg12
I17
sg13
VUrologic Diseases
p2003
sg15
I2
sasa(dp2004
g2
S'Urticaria is an entity. \n'
p2005
sg4
(lp2006
sg6
(lp2007
(dp2008
g9
I0
sg10
VC0042109
p2009
sg12
I9
sg13
VUrticaria
p2010
sg15
I1
sasa(dp2011
g2
S'Uveoparotid Fever is an entity.'
p2012
sg4
(lp2013
sg6
(lp2014
(dp2015
g9
I0
sg10
VC0042171
p2016
sg12
I17
sg13
VUveoparotid Fever
p2017
sg15
I2
sasa(dp2018
g2
S'Varicose Ulcer is an entity.'
p2019
sg4
(lp2020
sg6
(lp2021
(dp2022
g9
I0
sg10
VC0042344
p2023
sg12
I14
sg13
VVaricose Ulcer
p2024
sg15
I2
sasa(dp2025
g2
S'Virus Diseases is an entity.'
p2026
sg4
(lp2027
sg6
(lp2028
(dp2029
g9
I0
sg10
VC0042769
p2030
sg12
I14
sg13
VVirus Diseases
p2031
sg15
I2
sasa(dp2032
g2
S'Pertussis is an entity.'
p2033
sg4
(lp2034
sg6
(lp2035
(dp2036
g9
I0
sg10
VC0043167
p2037
sg12
I9
sg13
VPertussis
p2038
sg15
I1
sasa(dp2039
g2
S'Epidermolysis Bullosa Acquisita is an entity.'
p2040
sg4
(lp2041
sg6
(lp2042
(dp2043
g9
I0
sg10
VC0079293
p2044
sg12
I31
sg13
VEpidermolysis Bullosa Acquisita
p2045
sg15
I3
sasa(dp2046
g2
S'Epidermolysis Bullosa Dystrophica is an entity.'
p2047
sg4
(lp2048
sg6
(lp2049
(dp2050
g9
I0
sg10
VC0079294
p2051
sg12
I33
sg13
VEpidermolysis Bullosa Dystrophica
p2052
sg15
I3
sasa(dp2053
g2
S'Ichthyosis Vulgaris is an entity.'
p2054
sg4
(lp2055
sg6
(lp2056
(dp2057
g9
I0
sg10
VC0079584
p2058
sg12
I19
sg13
VIchthyosis Vulgaris
p2059
sg15
I2
sasa(dp2060
g2
S'Herlitz Disease is an entity.'
p2061
sg4
(lp2062
sg6
(lp2063
(dp2064
g9
I0
sg10
VC0079683
p2065
sg12
I15
sg13
VHerlitz Disease
p2066
sg15
I2
sasa(dp2067
g2
S'Lymphoma, Intermediate-Grade is an entity.'
p2068
sg4
(lp2069
sg6
(lp2070
(dp2071
g9
I0
sg10
VC0079741
p2072
sg12
I28
sg13
VLymphoma, Intermediate-Grade
p2073
sg15
I2
sasa(dp2074
g2
S'Low Grade Lymphoma (neoplasm) is an entity. \n'
p2075
sg4
(lp2076
sg6
(lp2077
(dp2078
g9
I0
sg10
VC0079747
p2079
sg12
I18
sg13
VLow Grade Lymphoma
p2080
sg15
I3
sa(dp2081
g9
I20
sg10
VC0027651
p2082
sg12
I8
sg13
Vneoplasm
p2083
sg15
I1
sasa(dp2084
g2
S'Lymphoma, Mixed-Cell, Follicular is an entity.'
p2085
sg4
(lp2086
sg6
(lp2087
(dp2088
g9
I0
sg10
VC0079758
p2089
sg12
I32
sg13
VLymphoma, Mixed-Cell, Follicular
p2090
sg15
I3
sasa(dp2091
g2
S'Spina Bifida is an entity.'
p2092
sg4
(lp2093
sg6
(lp2094
(dp2095
g9
I0
sg10
VC0080178
p2096
sg12
I12
sg13
VSpina Bifida
p2097
sg15
I2
sasa(dp2098
g2
S'Disorder of the genitourinary system is an entity.'
p2099
sg4
(lp2100
sg6
(lp2101
(dp2102
g9
I0
sg10
VC0080276
p2103
sg12
I36
sg13
VDisorder of the genitourinary system
p2104
sg15
I5
sasa(dp2105
g2
S'Fungemia is an entity.'
p2106
sg4
(lp2107
sg6
(lp2108
(dp2109
g9
I0
sg10
VC0085082
p2110
sg12
I8
sg13
VFungemia
p2111
sg15
I1
sasa(dp2112
g2
S'Leukemia, Feline is an entity.'
p2113
sg4
(lp2114
sg6
(lp2115
(dp2116
g9
I0
sg10
VC0085164
p2117
sg12
I16
sg13
VLeukemia, Feline
p2118
sg15
I2
sasa(dp2119
g2
S'Granular cell tumor is an entity.'
p2120
sg4
(lp2121
sg6
(lp2122
(dp2123
g9
I0
sg10
VC0085167
p2124
sg12
I19
sg13
VGranular cell tumor
p2125
sg15
I3
sasa(dp2126
g2
S'Eosinophilia-Myalgia Syndrome is an entity.'
p2127
sg4
(lp2128
sg6
(lp2129
(dp2130
g9
I0
sg10
VC0085179
p2131
sg12
I29
sg13
VEosinophilia-Myalgia Syndrome
p2132
sg15
I2
sasa(dp2133
g2
S'Plasma Cell Granuloma, Pulmonary is an entity.'
p2134
sg4
(lp2135
sg6
(lp2136
(dp2137
g9
I0
sg10
VC0085269
p2138
sg12
I32
sg13
VPlasma Cell Granuloma, Pulmonary
p2139
sg15
I4
sasa(dp2140
g2
S'Hepatitis E is an entity.'
p2141
sg4
(lp2142
sg6
(lp2143
(dp2144
g9
I0
sg10
VC0085293
p2145
sg12
I11
sg13
VHepatitis E
p2146
sg15
I2
sasa(dp2147
g2
S'Palindromic rheumatism is an entity. \n'
p2148
sg4
(lp2149
sg6
(lp2150
(dp2151
g9
I0
sg10
VC0085574
p2152
sg12
I22
sg13
VPalindromic rheumatism
p2153
sg15
I2
sasa(dp2154
g2
S'Polydipsia is an entity.'
p2155
sg4
(lp2156
sg6
(lp2157
(dp2158
g9
I0
sg10
VC0085602
p2159
sg12
I10
sg13
VPolydipsia
p2160
sg15
I1
sasa(dp2161
g2
S'Stupor is an entity.'
p2162
sg4
(lp2163
sg6
(lp2164
sa(dp2165
g2
S'Photophobia is an entity.'
p2166
sg4
(lp2167
sg6
(lp2168
(dp2169
g9
I0
sg10
VC0085636
p2170
sg12
I11
sg13
VPhotophobia
p2171
sg15
I1
sasa(dp2172
g2
S'Pyoderma Gangrenosum is an entity.'
p2173
sg4
(lp2174
sg6
(lp2175
(dp2176
g9
I0
sg10
VC0085652
p2177
sg12
I20
sg13
VPyoderma Gangrenosum
p2178
sg15
I2
sasa(dp2179
g2
S'Secondary carcinoma is an entity.'
p2180
sg4
(lp2181
sg6
(lp2182
(dp2183
g9
I0
sg10
VC0085668
p2184
sg12
I19
sg13
VSecondary carcinoma
p2185
sg15
I2
sasa(dp2186
g2
S'Acute leukemia is an entity.'
p2187
sg4
(lp2188
sg6
(lp2189
(dp2190
g9
I0
sg10
VC0085669
p2191
sg12
I14
sg13
VAcute leukemia
p2192
sg15
I2
sasa(dp2193
g2
S'Adenosis of Breast is an entity.'
p2194
sg4
(lp2195
sg6
(lp2196
(dp2197
g9
I0
sg10
VC0085750
p2198
sg12
I18
sg13
VAdenosis of Breast
p2199
sg15
I3
sasa(dp2200
g2
S'Aganglionosis, Colonic is an entity.'
p2201
sg4
(lp2202
sg6
(lp2203
(dp2204
g9
I0
sg10
VC0085758
p2205
sg12
I22
sg13
VAganglionosis, Colonic
p2206
sg15
I2
sasa(dp2207
g2
S'Hamman-Rich syndrome is an entity.'
p2208
sg4
(lp2209
sg6
(lp2210
(dp2211
g9
I0
sg10
VC0085786
p2212
sg12
I20
sg13
VHamman-Rich syndrome
p2213
sg15
I2
sasa(dp2214
g2
S'Mucopolysaccharidosis, MPS-IV-A is an entity. \n'
p2215
sg4
(lp2216
sg6
(lp2217
(dp2218
g9
I0
sg10
VC0086651
p2219
sg12
I31
sg13
VMucopolysaccharidosis, MPS-IV-A
p2220
sg15
I2
sasa(dp2221
g2
S'Pancreatic Cholera is an entity.'
p2222
sg4
(lp2223
sg6
(lp2224
(dp2225
g9
I0
sg10
VC0086768
p2226
sg12
I18
sg13
VPancreatic Cholera
p2227
sg15
I2
sasa(dp2228
g2
S'Ataxia, Spinocerebellar is an entity.'
p2229
sg4
(lp2230
sg6
(lp2231
(dp2232
g9
I0
sg10
VC0087012
p2233
sg12
I23
sg13
VAtaxia, Spinocerebellar
p2234
sg15
I2
sasa(dp2235
g2
S'Juvenile-Onset Still Disease is an entity.'
p2236
sg4
(lp2237
sg6
(lp2238
(dp2239
g9
I0
sg10
VC0087031
p2240
sg12
I28
sg13
VJuvenile-Onset Still Disease
p2241
sg15
I3
sasa(dp2242
g2
S'Cervical lymphadenitis is an entity.'
p2243
sg4
(lp2244
sg6
(lp2245
(dp2246
g9
I0
sg10
VC0149642
p2247
sg12
I22
sg13
VCervical lymphadenitis
p2248
sg15
I2
sasa(dp2249
g2
S'Clubbing is an entity.'
p2250
sg4
(lp2251
sg6
(lp2252
(dp2253
g9
I0
sg10
VC0009080
p2254
sg12
I8
sg13
VClubbing
p2255
sg15
I1
sasa(dp2256
g2
S'Left Ventricular Hypertrophy is an entity.'
p2257
sg4
(lp2258
sg6
(lp2259
(dp2260
g9
I0
sg10
VC0149721
p2261
sg12
I28
sg13
VLeft Ventricular Hypertrophy
p2262
sg15
I3
sasa(dp2263
g2
S"Hutchinson's Melanotic Freckle is an entity."
p2264
sg4
(lp2265
sg6
(lp2266
(dp2267
g9
I0
sg10
VC0149722
p2268
sg12
I30
sg13
VHutchinson's Melanotic Freckle
p2269
sg15
I3
sasa(dp2270
g2
S'Benign recurrent intrahepatic cholestasis is an entity.'
p2271
sg4
(lp2272
sg6
(lp2273
(dp2274
g9
I0
sg10
VC0149841
p2275
sg12
I41
sg13
VBenign recurrent intrahepatic cholestasis
p2276
sg15
I4
sasa(dp2277
g2
S'Cerebellar hemorrhage is an entity.'
p2278
sg4
(lp2279
sg6
(lp2280
(dp2281
g9
I0
sg10
VC0149854
p2282
sg12
I21
sg13
VCerebellar hemorrhage
p2283
sg15
I2
sasa(dp2284
g2
S'Humoral hypercalcemia of malignancy (disorder) is an entity. \n'
p2285
sg4
(lp2286
sg6
(lp2287
(dp2288
g9
I0
sg10
VC0149911
p2289
sg12
I35
sg13
VHumoral hypercalcemia of malignancy
p2290
sg15
I4
sasa(dp2291
g2
S'Migraine Disorders is an entity.'
p2292
sg4
(lp2293
sg6
(lp2294
(dp2295
g9
I0
sg10
VC0149931
p2296
sg12
I18
sg13
VMigraine Disorders
p2297
sg15
I2
sasa(dp2298
g2
S'Chronic pain is an entity.'
p2299
sg4
(lp2300
sg6
(lp2301
(dp2302
g9
I0
sg10
VC0150055
p2303
sg12
I12
sg13
VChronic pain
p2304
sg15
I2
sasa(dp2305
g2
S'Cranial nerve palsies is an entity.'
p2306
sg4
(lp2307
sg6
(lp2308
(dp2309
g9
I0
sg10
VC0151311
p2310
sg12
I21
sg13
VCranial nerve palsies
p2311
sg15
I3
sasa(dp2312
g2
S'Blood urea increased is an entity.'
p2313
sg4
(lp2314
sg6
(lp2315
sa(dp2316
g2
S'Reflex, Corneal, Decreased is an entity.'
p2317
sg4
(lp2318
sg6
(lp2319
sa(dp2320
g2
S'Hypogeusia is an entity.'
p2321
sg4
(lp2322
sg6
(lp2323
sa(dp2324
g2
S'Ulcer of esophagus is an entity.'
p2325
sg4
(lp2326
sg6
(lp2327
(dp2328
g9
I0
sg10
VC0151970
p2329
sg12
I18
sg13
VUlcer of esophagus
p2330
sg15
I3
sasa(dp2331
g2
S'Retinal Vasculitis is an entity.'
p2332
sg4
(lp2333
sg6
(lp2334
(dp2335
g9
I0
sg10
VC0152026
p2336
sg12
I18
sg13
VRetinal Vasculitis
p2337
sg15
I2
sasa(dp2338
g2
S'Hypertensive Retinopathy is an entity.'
p2339
sg4
(lp2340
sg6
(lp2341
(dp2342
g9
I0
sg10
VC0152132
p2343
sg12
I24
sg13
VHypertensive Retinopathy
p2344
sg15
I2
sasa(dp2345
g2
S'Glaucomatocyclitic crisis is an entity. \n'
p2346
sg4
(lp2347
sg6
(lp2348
(dp2349
g9
I0
sg10
VC0152138
p2350
sg12
I25
sg13
VGlaucomatocyclitic crisis
p2351
sg15
I2
sasa(dp2352
g2
S'Achromatopsia is an entity.'
p2353
sg4
(lp2354
sg6
(lp2355
(dp2356
g9
I0
sg10
VC0152200
p2357
sg12
I13
sg13
VAchromatopsia
p2358
sg15
I1
sasa(dp2359
g2
S'Disuse osteoporosis is an entity.'
p2360
sg4
(lp2361
sg6
(lp2362
(dp2363
g9
I0
sg10
VC0152256
p2364
sg12
I19
sg13
VDisuse osteoporosis
p2365
sg15
I2
sasa(dp2366
g2
S'Leukocoria is an entity.'
p2367
sg4
(lp2368
sg6
(lp2369
(dp2370
g9
I0
sg10
VC0152458
p2371
sg12
I10
sg13
VLeukocoria
p2372
sg15
I1
sasa(dp2373
g2
S'Enteritis due to specified virus is an entity.'
p2374
sg4
(lp2375
sg6
(lp2376
(dp2377
g9
I0
sg10
VC0152517
p2378
sg12
I32
sg13
VEnteritis due to specified virus
p2379
sg15
I5
sasa(dp2380
g2
S'Acute miliary tuberculosis is an entity.'
p2381
sg4
(lp2382
sg6
(lp2383
(dp2384
g9
I0
sg10
VC0152915
p2385
sg12
I26
sg13
VAcute miliary tuberculosis
p2386
sg15
I3
sasa(dp2387
g2
S'Malignant tumor of parathyroid gland is an entity.'
p2388
sg4
(lp2389
sg6
(lp2390
(dp2391
g9
I0
sg10
VC0153653
p2392
sg12
I36
sg13
VMalignant tumor of parathyroid gland
p2393
sg15
I5
sasa(dp2394
g2
S'Toxic multinodular goiter is an entity.'
p2395
sg4
(lp2396
sg6
(lp2397
(dp2398
g9
I0
sg10
VC0154143
p2399
sg12
I25
sg13
VToxic multinodular goiter
p2400
sg15
I3
sasa(dp2401
g2
S"Organic writer's cramp is an entity."
p2402
sg4
(lp2403
sg6
(lp2404
(dp2405
g9
I0
sg10
VC0154676
p2406
sg12
I22
sg13
VOrganic writer's cramp
p2407
sg15
I3
sasa(dp2408
g2
S'Rubeosis iridis is an entity.'
p2409
sg4
(lp2410
sg6
(lp2411
(dp2412
g9
I0
sg10
VC0154916
p2413
sg12
I15
sg13
VRubeosis iridis
p2414
sg15
I2
sasa(dp2415
g2
S'Color Blindness, Red is an entity. \n'
p2416
sg4
(lp2417
sg6
(lp2418
(dp2419
g9
I0
sg10
VC0155015
p2420
sg12
I20
sg13
VColor Blindness, Red
p2421
sg15
I3
sasa(dp2422
g2
S'Hypertrophy of clitoris is an entity.'
p2423
sg4
(lp2424
sg6
(lp2425
(dp2426
g9
I0
sg10
VC0156394
p2427
sg12
I23
sg13
VHypertrophy of clitoris
p2428
sg15
I3
sasa(dp2429
g2
S'Cervical rib is an entity.'
p2430
sg4
(lp2431
sg6
(lp2432
(dp2433
g9
I0
sg10
VC0158779
p2434
sg12
I12
sg13
VCervical rib
p2435
sg15
I2
sasa(dp2436
g2
S'Anemia of prematurity is an entity.'
p2437
sg4
(lp2438
sg6
(lp2439
(dp2440
g9
I0
sg10
VC0158996
p2441
sg12
I21
sg13
VAnemia of prematurity
p2442
sg15
I3
sasa(dp2443
g2
S'Convulsions in the newborn is an entity.'
p2444
sg4
(lp2445
sg6
(lp2446
(dp2447
g9
I0
sg10
VC0159020
p2448
sg12
I26
sg13
VConvulsions in the newborn
p2449
sg15
I4
sasa(dp2450
g2
S'Hemoglobin low is an entity.'
p2451
sg4
(lp2452
(dp2453
g9
I0
sg585
g586
sg12
I10
sg13
VHemoglobin
p2454
sg15
I1
sasg6
(lp2455
sa(dp2456
g2
S'Corneal deposit is an entity.'
p2457
sg4
(lp2458
sg6
(lp2459
(dp2460
g9
I0
sg10
VC0162281
p2461
sg12
I15
sg13
VCorneal deposit
p2462
sg15
I2
sasa(dp2463
g2
S'Joint stiffness is an entity.'
p2464
sg4
(lp2465
sg6
(lp2466
(dp2467
g9
I0
sg10
VC0162298
p2468
sg12
I15
sg13
VJoint stiffness
p2469
sg15
I2
sasa(dp2470
g2
S'Polyarthritis is an entity.'
p2471
sg4
(lp2472
sg6
(lp2473
(dp2474
g9
I0
sg10
VC0162323
p2475
sg12
I13
sg13
VPolyarthritis
p2476
sg15
I1
sasa(dp2477
g2
S'Contact hypersensitivity is an entity.'
p2478
sg4
(lp2479
sg6
(lp2480
(dp2481
g9
I0
sg10
VC0162351
p2482
sg12
I24
sg13
VContact hypersensitivity
p2483
sg15
I2
sasa(dp2484
g2
S'Skin Diseases, Viral is an entity. \n'
p2485
sg4
(lp2486
sg6
(lp2487
(dp2488
g9
I0
sg10
VC0162628
p2489
sg12
I20
sg13
VSkin Diseases, Viral
p2490
sg15
I3
sasa(dp2491
g2
S'Caliciviridae Infections is an entity.'
p2492
sg4
(lp2493
sg6
(lp2494
(dp2495
g9
I0
sg10
VC0162677
p2496
sg12
I24
sg13
VCaliciviridae Infections
p2497
sg15
I2
sasa(dp2498
g2
S'Neurofibromatoses is an entity.'
p2499
sg4
(lp2500
sg6
(lp2501
(dp2502
g9
I0
sg10
VC0162678
p2503
sg12
I17
sg13
VNeurofibromatoses
p2504
sg15
I1
sasa(dp2505
g2
S'Dermatitis, Phototoxic is an entity.'
p2506
sg4
(lp2507
sg6
(lp2508
(dp2509
g9
I0
sg10
VC0162830
p2510
sg12
I22
sg13
VDermatitis, Phototoxic
p2511
sg15
I2
sasa(dp2512
g2
S'Hyperpigmentation is an entity.'
p2513
sg4
(lp2514
sg6
(lp2515
(dp2516
g9
I0
sg10
VC0162834
p2517
sg12
I17
sg13
VHyperpigmentation
p2518
sg15
I1
sasa(dp2519
g2
S'Porokeratosis is an entity.'
p2520
sg4
(lp2521
sg6
(lp2522
(dp2523
g9
I0
sg10
VC0162839
p2524
sg12
I13
sg13
VPorokeratosis
p2525
sg15
I1
sasa(dp2526
g2
S'Pityriasis Lichenoides et Varioliformis Acuta is an entity.'
p2527
sg4
(lp2528
sg6
(lp2529
(dp2530
g9
I0
sg10
VC0162852
p2531
sg12
I45
sg13
VPityriasis Lichenoides et Varioliformis Acuta
p2532
sg15
I5
sasa(dp2533
g2
S'Saethre-Chotzen Syndrome is an entity.'
p2534
sg4
(lp2535
sg6
(lp2536
(dp2537
g9
I0
sg10
VC0175699
p2538
sg12
I24
sg13
VSaethre-Chotzen Syndrome
p2539
sg15
I2
sasa(dp2540
g2
S'LEOPARD Syndrome is an entity.'
p2541
sg4
(lp2542
sg6
(lp2543
(dp2544
g9
I0
sg10
VC0175704
p2545
sg12
I16
sg13
VLEOPARD Syndrome
p2546
sg15
I2
sasa(dp2547
g2
S'Inflammatory disease of the central nervous system is an entity.'
p2548
sg4
(lp2549
sg6
(lp2550
(dp2551
g9
I0
sg10
VC0178264
p2552
sg12
I50
sg13
VInflammatory disease of the central nervous system
p2553
sg15
I7
sasa(dp2554
g2
S'Hernia of abdominal cavity is an entity. \n'
p2555
sg4
(lp2556
sg6
(lp2557
(dp2558
g9
I0
sg10
VC0178282
p2559
sg12
I26
sg13
VHernia of abdominal cavity
p2560
sg15
I4
sasa(dp2561
g2
S'Antiphospholipid antibodies measurement is an entity.'
p2562
sg4
(lp2563
sg6
(lp2564
sa(dp2565
g2
S'Carcinoma, Spindle-Cell is an entity.'
p2566
sg4
(lp2567
sg6
(lp2568
(dp2569
g9
I0
sg10
VC0205697
p2570
sg12
I23
sg13
VCarcinoma, Spindle-Cell
p2571
sg15
I2
sasa(dp2572
g2
S'Undifferentiated carcinoma is an entity.'
p2573
sg4
(lp2574
sg6
(lp2575
(dp2576
g9
I0
sg10
VC0205698
p2577
sg12
I26
sg13
VUndifferentiated carcinoma
p2578
sg15
I2
sasa(dp2579
g2
S'Alpers Syndrome (disorder) is an entity.'
p2580
sg4
(lp2581
sg6
(lp2582
(dp2583
g9
I0
sg10
VC0205710
p2584
sg12
I15
sg13
VAlpers Syndrome
p2585
sg15
I2
sasa(dp2586
g2
S'Subependymal Giant Cell Astrocytoma is an entity.'
p2587
sg4
(lp2588
sg6
(lp2589
(dp2590
g9
I0
sg10
VC0205768
p2591
sg12
I35
sg13
VSubependymal Giant Cell Astrocytoma
p2592
sg15
I4
sasa(dp2593
g2
S'Medullomyoblastoma is an entity.'
p2594
sg4
(lp2595
sg6
(lp2596
(dp2597
g9
I0
sg10
VC0205833
p2598
sg12
I18
sg13
VMedullomyoblastoma
p2599
sg15
I1
sasa(dp2600
g2
S'Papillomatosis is an entity.'
p2601
sg4
(lp2602
sg6
(lp2603
(dp2604
g9
I0
sg10
VC0205875
p2605
sg12
I14
sg13
VPapillomatosis
p2606
sg15
I1
sasa(dp2607
g2
S'Reticulocytosis is an entity.'
p2608
sg4
(lp2609
sg6
(lp2610
sa(dp2611
g2
S'Amyloid Neuropathies is an entity.'
p2612
sg4
(lp2613
sg6
(lp2614
(dp2615
g9
I0
sg10
VC0206247
p2616
sg12
I20
sg13
VAmyloid Neuropathies
p2617
sg15
I2
sasa(dp2618
g2
S'Tuberculosis, Multidrug-Resistant is an entity. \n'
p2619
sg4
(lp2620
sg6
(lp2621
(dp2622
g9
I0
sg10
VC0206526
p2623
sg12
I33
sg13
VTuberculosis, Multidrug-Resistant
p2624
sg15
I2
sasa(dp2625
g2
S'Adenomyoma is an entity.'
p2626
sg4
(lp2627
sg6
(lp2628
(dp2629
g9
I0
sg10
VC0206622
p2630
sg12
I10
sg13
VAdenomyoma
p2631
sg15
I1
sasa(dp2632
g2
S'Ossifying Fibroma is an entity.'
p2633
sg4
(lp2634
sg6
(lp2635
(dp2636
g9
I0
sg10
VC0206640
p2637
sg12
I17
sg13
VOssifying Fibroma
p2638
sg15
I2
sasa(dp2639
g2
S'Fibromatosis, Abdominal is an entity.'
p2640
sg4
(lp2641
sg6
(lp2642
(dp2643
g9
I0
sg10
VC0206646
p2644
sg12
I23
sg13
VFibromatosis, Abdominal
p2645
sg15
I2
sasa(dp2646
g2
S'Dermatofibrosarcoma is an entity.'
p2647
sg4
(lp2648
sg6
(lp2649
(dp2650
g9
I0
sg10
VC0206647
p2651
sg12
I19
sg13
VDermatofibrosarcoma
p2652
sg15
I1
sasa(dp2653
g2
S'Myofibromatosis is an entity.'
p2654
sg4
(lp2655
sg6
(lp2656
(dp2657
g9
I0
sg10
VC0206648
p2658
sg12
I15
sg13
VMyofibromatosis
p2659
sg15
I1
sasa(dp2660
g2
S'Plexiform Neurofibroma is an entity.'
p2661
sg4
(lp2662
sg6
(lp2663
(dp2664
g9
I0
sg10
VC0206728
p2665
sg12
I22
sg13
VPlexiform Neurofibroma
p2666
sg15
I2
sasa(dp2667
g2
S'childhood soft tissue sarcoma is an entity.'
p2668
sg4
(lp2669
sg6
(lp2670
(dp2671
g9
I0
sg10
VC0220645
p2672
sg12
I29
sg13
Vchildhood soft tissue sarcoma
p2673
sg15
I4
sasa(dp2674
g2
S'Pfeiffer Syndrome is an entity.'
p2675
sg4
(lp2676
sg6
(lp2677
(dp2678
g9
I0
sg10
VC0265303
p2679
sg12
I17
sg13
VPfeiffer Syndrome
p2680
sg15
I2
sasa(dp2681
g2
S'BRACHYDACTYLY, TYPE D is an entity.'
p2682
sg4
(lp2683
sg6
(lp2684
(dp2685
g9
I0
sg10
VC0220664
p2686
sg12
I21
sg13
VBRACHYDACTYLY, TYPE D
p2687
sg15
I3
sasa(dp2688
g2
S'Microcephaly autosomal dominant is an entity. \n'
p2689
sg4
(lp2690
sg6
(lp2691
(dp2692
g9
I0
sg10
VC0220693
p2693
sg12
I31
sg13
VMicrocephaly autosomal dominant
p2694
sg15
I3
sasa(dp2695
g2
S'Vagina absent is an entity.'
p2696
sg4
(lp2697
sg6
(lp2698
sa(dp2699
g2
S'Congenital hypoplasia of adrenal gland is an entity.'
p2700
sg4
(lp2701
sg6
(lp2702
(dp2703
g9
I0
sg10
VC0220766
p2704
sg12
I38
sg13
VCongenital hypoplasia of adrenal gland
p2705
sg15
I5
sasa(dp2706
g2
S'FG syndrome is an entity.'
p2707
sg4
(lp2708
sg6
(lp2709
(dp2710
g9
I0
sg10
VC0220769
p2711
sg12
I11
sg13
VFG syndrome
p2712
sg15
I2
sasa(dp2713
g2
S'Ketoacidosis is an entity.'
p2714
sg4
(lp2715
sg6
(lp2716
(dp2717
g9
I0
sg10
VC0220982
p2718
sg12
I12
sg13
VKetoacidosis
p2719
sg15
I1
sasa(dp2720
g2
S'Sickle cell-beta-thalassemia is an entity.'
p2721
sg4
(lp2722
sg6
(lp2723
(dp2724
g9
I0
sg10
VC0221019
p2725
sg12
I28
sg13
VSickle cell-beta-thalassemia
p2726
sg15
I2
sasa(dp2727
g2
S'Kasabach-Merritt syndrome is an entity.'
p2728
sg4
(lp2729
sg6
(lp2730
(dp2731
g9
I0
sg10
VC0221025
p2732
sg12
I25
sg13
VKasabach-Merritt syndrome
p2733
sg15
I2
sasa(dp2734
g2
S'Mobius Syndrome is an entity.'
p2735
sg4
(lp2736
sg6
(lp2737
(dp2738
g9
I0
sg10
VC0221060
p2739
sg12
I15
sg13
VMobius Syndrome
p2740
sg15
I2
sasa(dp2741
g2
S'Cafe-au-Lait Spots is an entity.'
p2742
sg4
(lp2743
sg6
(lp2744
(dp2745
g9
I13
sg10
VC0015230
p2746
sg12
I5
sg13
VSpots
p2747
sg15
I1
sasa(dp2748
g2
S'Anisocytosis is an entity.'
p2749
sg4
(lp2750
sg6
(lp2751
sa(dp2752
g2
S'Poikilocytosis is an entity. \n'
p2753
sg4
(lp2754
sg6
(lp2755
sa(dp2756
g2
S'Syndactyly of fingers is an entity.'
p2757
sg4
(lp2758
sg6
(lp2759
(dp2760
g9
I0
sg10
VC0221352
p2761
sg12
I21
sg13
VSyndactyly of fingers
p2762
sg15
I3
sasa(dp2763
g2
S'Anemia, hereditary spherocytic hemolytic is an entity.'
p2764
sg4
(lp2765
sg6
(lp2766
(dp2767
g9
I0
sg10
VC0221409
p2768
sg12
I40
sg13
VAnemia, hereditary spherocytic hemolytic
p2769
sg15
I4
sasa(dp2770
g2
S'Recurrent depression is an entity.'
p2771
sg4
(lp2772
sg6
(lp2773
(dp2774
g9
I0
sg10
VC0221480
p2775
sg12
I20
sg13
VRecurrent depression
p2776
sg15
I2
sasa(dp2777
g2
S'Failure to gain weight is an entity.'
p2778
sg4
(lp2779
sg6
(lp2780
(dp2781
g9
I0
sg10
VC0231246
p2782
sg12
I22
sg13
VFailure to gain weight
p2783
sg15
I4
sasa(dp2784
g2
S'Gait, Unsteady is an entity.'
p2785
sg4
(lp2786
sg6
(lp2787
sa(dp2788
g2
S'Gait, Shuffling is an entity.'
p2789
sg4
(lp2790
sg6
(lp2791
sa(dp2792
g2
S'Induced apnea is an entity.'
p2793
sg4
(lp2794
sg6
(lp2795
(dp2796
g9
I0
sg10
VC0232066
p2797
sg12
I13
sg13
VInduced apnea
p2798
sg15
I2
sasa(dp2799
g2
S'Florid red complexion (finding) is an entity.'
p2800
sg4
(lp2801
sg6
(lp2802
sa(dp2803
g2
S'Increased peristalsis is an entity.'
p2804
sg4
(lp2805
sg6
(lp2806
sa(dp2807
g2
S'Absent peristalsis is an entity. \n'
p2808
sg4
(lp2809
sg6
(lp2810
(dp2811
g9
I0
sg10
VC0232476
p2812
sg12
I18
sg13
VAbsent peristalsis
p2813
sg15
I2
sasa(dp2814
g2
S'Abdominal colic is an entity.'
p2815
sg4
(lp2816
sg6
(lp2817
(dp2818
g9
I0
sg10
VC0232488
p2819
sg12
I15
sg13
VAbdominal colic
p2820
sg15
I2
sasa(dp2821
g2
S'Self-induced vomiting is an entity.'
p2822
sg4
(lp2823
sg6
(lp2824
(dp2825
g9
I0
sg10
VC0232600
p2826
sg12
I21
sg13
VSelf-induced vomiting
p2827
sg15
I2
sasa(dp2828
g2
S'Bladder pain is an entity.'
p2829
sg4
(lp2830
sg6
(lp2831
(dp2832
g9
I0
sg10
VC0232849
p2833
sg12
I12
sg13
VBladder pain
p2834
sg15
I2
sasa(dp2835
g2
S'Disorientation is an entity.'
p2836
sg4
(lp2837
sg6
(lp2838
(dp2839
g9
I0
sg10
VC0233407
p2840
sg12
I14
sg13
VDisorientation
p2841
sg15
I1
sasa(dp2842
g2
S'Feeling despair is an entity.'
p2843
sg4
(lp2844
sg6
(lp2845
(dp2846
g9
I0
sg10
VC0233488
p2847
sg12
I15
sg13
VFeeling despair
p2848
sg15
I2
sasa(dp2849
g2
S'Negativism in catatonia is an entity.'
p2850
sg4
(lp2851
sg6
(lp2852
(dp2853
g9
I0
sg10
VC0233610
p2854
sg12
I23
sg13
VNegativism in catatonia
p2855
sg15
I3
sasa(dp2856
g2
S'Annular Erythema is an entity.'
p2857
sg4
(lp2858
sg6
(lp2859
(dp2860
g9
I0
sg10
VC0234906
p2861
sg12
I16
sg13
VAnnular Erythema
p2862
sg15
I2
sasa(dp2863
g2
S'Diastolic hypertension is an entity.'
p2864
sg4
(lp2865
sg6
(lp2866
(dp2867
g9
I0
sg10
VC0235222
p2868
sg12
I22
sg13
VDiastolic hypertension
p2869
sg15
I2
sasa(dp2870
g2
S'Ototoxicity is an entity.'
p2871
sg4
(lp2872
sg6
(lp2873
sa(dp2874
g2
S'Disorder of vein is an entity. \n'
p2875
sg4
(lp2876
sg6
(lp2877
(dp2878
g9
I0
sg10
VC0235522
p2879
sg12
I16
sg13
VDisorder of vein
p2880
sg15
I3
sasa(dp2881
g2
S'Gallbladder Carcinoma is an entity.'
p2882
sg4
(lp2883
sg6
(lp2884
(dp2885
g9
I0
sg10
VC0235782
p2886
sg12
I21
sg13
VGallbladder Carcinoma
p2887
sg15
I2
sasa(dp2888
g2
S'Neonatal leukaemia is an entity.'
p2889
sg4
(lp2890
sg6
(lp2891
(dp2892
g9
I0
sg10
VC0235813
p2893
sg12
I18
sg13
VNeonatal leukaemia
p2894
sg15
I2
sasa(dp2895
g2
S'Renal Cell Dysplasia is an entity.'
p2896
sg4
(lp2897
sg6
(lp2898
(dp2899
g9
I0
sg10
VC0235831
p2900
sg12
I20
sg13
VRenal Cell Dysplasia
p2901
sg15
I3
sasa(dp2902
g2
S'Lacrimation decreased is an entity.'
p2903
sg4
(lp2904
sg6
(lp2905
sa(dp2906
g2
S'Congenital hypertrichosis lanuginosa is an entity.'
p2907
sg4
(lp2908
sg6
(lp2909
(dp2910
g9
I0
sg10
VC0235864
p2911
sg12
I36
sg13
VCongenital hypertrichosis lanuginosa
p2912
sg15
I3
sasa(dp2913
g2
S'Pancreatic carcinoma is an entity.'
p2914
sg4
(lp2915
sg6
(lp2916
(dp2917
g9
I0
sg10
VC0235974
p2918
sg12
I20
sg13
VPancreatic carcinoma
p2919
sg15
I2
sasa(dp2920
g2
S'Alcohol-Related Disorders is an entity.'
p2921
sg4
(lp2922
sg6
(lp2923
(dp2924
g9
I0
sg10
VC0236664
p2925
sg12
I25
sg13
VAlcohol-Related Disorders
p2926
sg15
I2
sasa(dp2927
g2
S'Adult form of celiac disease is an entity.'
p2928
sg4
(lp2929
sg6
(lp2930
(dp2931
g9
I0
sg10
VC0238049
p2932
sg12
I28
sg13
VAdult form of celiac disease
p2933
sg15
I5
sasa(dp2934
g2
S'Cytomegalovirus encephalitis is an entity.'
p2935
sg4
(lp2936
sg6
(lp2937
(dp2938
g9
I0
sg10
VC0238097
p2939
sg12
I28
sg13
VCytomegalovirus encephalitis
p2940
sg15
I2
sasa(dp2941
g2
S'Carcinoma of vocal cord is an entity. \n'
p2942
sg4
(lp2943
sg6
(lp2944
(dp2945
g9
I0
sg10
VC0238224
p2946
sg12
I23
sg13
VCarcinoma of vocal cord
p2947
sg15
I4
sasa(dp2948
g2
S'Hemoglobin SS disease with crisis is an entity.'
p2949
sg4
(lp2950
(dp2951
g9
I0
sg585
g586
sg12
I10
sg13
VHemoglobin
p2952
sg15
I1
sasg6
(lp2953
(dp2954
g9
I0
sg10
VC0238425
p2955
sg12
I33
sg13
VHemoglobin SS disease with crisis
p2956
sg15
I5
sasa(dp2957
g2
S'vaginal clear cell adenocarcinoma is an entity.'
p2958
sg4
(lp2959
sg6
(lp2960
(dp2961
g9
I0
sg10
VC0238517
p2962
sg12
I33
sg13
Vvaginal clear cell adenocarcinoma
p2963
sg15
I4
sasa(dp2964
g2
S'Left atrial hypertrophy is an entity.'
p2965
sg4
(lp2966
sg6
(lp2967
(dp2968
g9
I0
sg10
VC0238705
p2969
sg12
I23
sg13
VLeft atrial hypertrophy
p2970
sg15
I3
sasa(dp2971
g2
S'Difficulty chewing is an entity.'
p2972
sg4
(lp2973
sg6
(lp2974
sa(dp2975
g2
S'Coxa valga is an entity.'
p2976
sg4
(lp2977
sg6
(lp2978
(dp2979
g9
I0
sg10
VC0239137
p2980
sg12
I10
sg13
VCoxa valga
p2981
sg15
I2
sasa(dp2982
g2
S'Hyperreflexia in knees is an entity.'
p2983
sg4
(lp2984
sg6
(lp2985
sa(dp2986
g2
S'Leukonychia is an entity.'
p2987
sg4
(lp2988
sg6
(lp2989
(dp2990
g9
I0
sg10
VC0240182
p2991
sg12
I11
sg13
VLeukonychia
p2992
sg15
I1
sasa(dp2993
g2
S'Hyperplasia of midface is an entity.'
p2994
sg4
(lp2995
sg6
(lp2996
(dp2997
g9
I0
sg10
VC0020507
p2998
sg12
I11
sg13
VHyperplasia
p2999
sg15
I1
sasa(dp3000
g2
S'Peroneal muscle weakness is an entity.'
p3001
sg4
(lp3002
sg6
(lp3003
(dp3004
g9
I9
sg10
VC0030552
p3005
sg12
I15
sg13
Vmuscle weakness
p3006
sg15
I2
sasa(dp3007
g2
S'Prostate infection is an entity. \n'
p3008
sg4
(lp3009
sg6
(lp3010
(dp3011
g9
I0
sg10
VC0240811
p3012
sg12
I18
sg13
VProstate infection
p3013
sg15
I2
sasa(dp3014
g2
S'Low serum estradiol levels is an entity.'
p3015
sg4
(lp3016
sg6
(lp3017
sa(dp3018
g2
S'Pain of skin is an entity.'
p3019
sg4
(lp3020
sg6
(lp3021
(dp3022
g9
I0
sg10
VC0241136
p3023
sg12
I12
sg13
VPain of skin
p3024
sg15
I3
sasa(dp3025
g2
S'Purulent sputum is an entity.'
p3026
sg4
(lp3027
sg6
(lp3028
(dp3029
g9
I0
sg10
VC0241235
p3030
sg12
I15
sg13
VPurulent sputum
p3031
sg15
I2
sasa(dp3032
g2
S'Tongue nodules is an entity.'
p3033
sg4
(lp3034
sg6
(lp3035
(dp3036
g9
I7
sg10
VC0028259
p3037
sg12
I7
sg13
Vnodules
p3038
sg15
I1
sasa(dp3039
g2
S'Hematuria, Benign Familial is an entity.'
p3040
sg4
(lp3041
sg6
(lp3042
(dp3043
g9
I0
sg10
VC0241908
p3044
sg12
I26
sg13
VHematuria, Benign Familial
p3045
sg15
I3
sasa(dp3046
g2
S'Halothane Hepatitis is an entity.'
p3047
sg4
(lp3048
sg6
(lp3049
(dp3050
g9
I0
sg10
VC0241913
p3051
sg12
I19
sg13
VHalothane Hepatitis
p3052
sg15
I2
sasa(dp3053
g2
S'Erectile dysfunction is an entity.'
p3054
sg4
(lp3055
sg6
(lp3056
(dp3057
g9
I0
sg10
VC0242350
p3058
sg12
I20
sg13
VErectile dysfunction
p3059
sg15
I2
sasa(dp3060
g2
S'Anus Prolapse is an entity.'
p3061
sg4
(lp3062
sg6
(lp3063
(dp3064
g9
I0
sg10
VC0242473
p3065
sg12
I13
sg13
VAnus Prolapse
p3066
sg15
I2
sasa(dp3067
g2
S'Persistent Vegetative State is an entity.'
p3068
sg4
(lp3069
sg6
(lp3070
(dp3071
g9
I0
sg10
VC0242670
p3072
sg12
I27
sg13
VPersistent Vegetative State
p3073
sg15
I3
sasa(dp3074
g2
S'Systemic Inflammatory Response Syndrome is an entity. \n'
p3075
sg4
(lp3076
sg6
(lp3077
(dp3078
g9
I0
sg10
VC0242966
p3079
sg12
I39
sg13
VSystemic Inflammatory Response Syndrome
p3080
sg15
I4
sasa(dp3081
g2
S'Viral Encephalitis is an entity.'
p3082
sg4
(lp3083
sg6
(lp3084
(dp3085
g9
I0
sg10
VC0243010
p3086
sg12
I18
sg13
VViral Encephalitis
p3087
sg15
I2
sasa(dp3088
g2
S'Sepsis is an entity.'
p3089
sg4
(lp3090
sg6
(lp3091
(dp3092
g9
I0
sg10
VC0243026
p3093
sg12
I6
sg13
VSepsis
p3094
sg15
I1
sasa(dp3095
g2
S'Atresia is an entity.'
p3096
sg4
(lp3097
sg6
(lp3098
(dp3099
g9
I0
sg10
VC0243066
p3100
sg12
I7
sg13
VAtresia
p3101
sg15
I1
sasa(dp3102
g2
S'Epithelial inclusion cyst is an entity.'
p3103
sg4
(lp3104
sg6
(lp3105
(dp3106
g9
I0
sg10
VC0259770
p3107
sg12
I25
sg13
VEpithelial inclusion cyst
p3108
sg15
I3
sasa(dp3109
g2
S'CNS DEGENERATION is an entity.'
p3110
sg4
(lp3111
sg6
(lp3112
(dp3113
g9
I4
sg10
VC0011164
p3114
sg12
I12
sg13
VDEGENERATION
p3115
sg15
I1
sasa(dp3116
g2
S'Dental abnormalities is an entity.'
p3117
sg4
(lp3118
sg6
(lp3119
sa(dp3120
g2
S'Polyp of gallbladder is an entity.'
p3121
sg4
(lp3122
sg6
(lp3123
(dp3124
g9
I0
sg10
VC0262493
p3125
sg12
I20
sg13
VPolyp of gallbladder
p3126
sg15
I3
sasa(dp3127
g2
S'THYMUS ABNORMALITY is an entity.'
p3128
sg4
(lp3129
sg6
(lp3130
sa(dp3131
g2
S'Acute dermatitis is an entity.'
p3132
sg4
(lp3133
sg6
(lp3134
(dp3135
g9
I0
sg10
VC0262972
p3136
sg12
I16
sg13
VAcute dermatitis
p3137
sg15
I2
sasa(dp3138
g2
S'Subacute dermatitis is an entity. \n'
p3139
sg4
(lp3140
sg6
(lp3141
(dp3142
g9
I0
sg10
VC0262974
p3143
sg12
I19
sg13
VSubacute dermatitis
p3144
sg15
I2
sasa(dp3145
g2
S'Pemphigus Foliaceus is an entity.'
p3146
sg4
(lp3147
sg6
(lp3148
(dp3149
g9
I0
sg10
VC0263313
p3150
sg12
I19
sg13
VPemphigus Foliaceus
p3151
sg15
I2
sasa(dp3152
g2
S'Urticaria medicamentosa is an entity.'
p3153
sg4
(lp3154
sg6
(lp3155
(dp3156
g9
I0
sg10
VC0263347
p3157
sg12
I23
sg13
VUrticaria medicamentosa
p3158
sg15
I2
sasa(dp3159
g2
S'Linear Scleroderma is an entity.'
p3160
sg4
(lp3161
sg6
(lp3162
(dp3163
g9
I0
sg10
VC0263409
p3164
sg12
I18
sg13
VLinear Scleroderma
p3165
sg15
I2
sasa(dp3166
g2
S'Atrophoderma vermiculatum is an entity.'
p3167
sg4
(lp3168
sg6
(lp3169
(dp3170
g9
I0
sg10
VC0263429
p3171
sg12
I25
sg13
VAtrophoderma vermiculatum
p3172
sg15
I2
sasa(dp3173
g2
S'Clastothrix is an entity.'
p3174
sg4
(lp3175
sg6
(lp3176
(dp3177
g9
I0
sg10
VC0263485
p3178
sg12
I11
sg13
VClastothrix
p3179
sg15
I1
sasa(dp3180
g2
S'Premature canities is an entity.'
p3181
sg4
(lp3182
sg6
(lp3183
(dp3184
g9
I10
sg10
VC0344312
p3185
sg12
I8
sg13
Vcanities
p3186
sg15
I1
sasa(dp3187
g2
S'Clubbing of nail is an entity.'
p3188
sg4
(lp3189
sg6
(lp3190
(dp3191
g9
I0
sg10
VC0263538
p3192
sg12
I16
sg13
VClubbing of nail
p3193
sg15
I3
sasa(dp3194
g2
S'Calcinosis universalis is an entity.'
p3195
sg4
(lp3196
sg6
(lp3197
(dp3198
g9
I0
sg10
VC0263627
p3199
sg12
I22
sg13
VCalcinosis universalis
p3200
sg15
I2
sasa(dp3201
g2
S'Disseminated eosinophilic collagen disease is an entity.'
p3202
sg4
(lp3203
sg6
(lp3204
(dp3205
g9
I0
sg10
VC0263662
p3206
sg12
I42
sg13
VDisseminated eosinophilic collagen disease
p3207
sg15
I4
sasa(dp3208
g2
S'Acute arthritis is an entity. \n'
p3209
sg4
(lp3210
sg6
(lp3211
(dp3212
g9
I0
sg10
VC0263678
p3213
sg12
I15
sg13
VAcute arthritis
p3214
sg15
I2
sasa(dp3215
g2
S'Synovitis, Acne, Pustulosis, Hyperostosis, and Osteitis Syndrome is an entity.'
p3216
sg4
(lp3217
sg6
(lp3218
(dp3219
g9
I11
sg10
VC0001144
p3220
sg12
I4
sg13
VAcne
p3221
sg15
I1
sa(dp3222
g9
I0
sg10
VC0039103
p3223
sg12
I9
sg13
VSynovitis
p3224
sg15
I1
sa(dp3225
g9
I29
sg10
VC0020492
p3226
sg12
I12
sg13
VHyperostosis
p3227
sg15
I1
sa(dp3228
g9
I47
sg10
VC0029400
p3229
sg12
I8
sg13
VOsteitis
p3230
sg15
I1
sa(dp3231
g9
I56
sg10
VC0039082
p3232
sg12
I8
sg13
VSyndrome
p3233
sg15
I1
sasa(dp3234
g2
S'Wedging of vertebra is an entity.'
p3235
sg4
(lp3236
sg6
(lp3237
(dp3238
g9
I0
sg10
VC0264112
p3239
sg12
I19
sg13
VWedging of vertebra
p3240
sg15
I3
sasa(dp3241
g2
S'Chronic disease of respiratory system is an entity.'
p3242
sg4
(lp3243
sg6
(lp3244
(dp3245
g9
I0
sg10
VC0264220
p3246
sg12
I37
sg13
VChronic disease of respiratory system
p3247
sg15
I5
sasa(dp3248
g2
S'Myxoid transformation of mitral valve is an entity.'
p3249
sg4
(lp3250
sg6
(lp3251
(dp3252
g9
I0
sg10
VC0264885
p3253
sg12
I37
sg13
VMyxoid transformation of mitral valve
p3254
sg15
I5
sasa(dp3255
g2
S'Weaver syndrome is an entity.'
p3256
sg4
(lp3257
sg6
(lp3258
(dp3259
g9
I0
sg10
VC0265210
p3260
sg12
I15
sg13
VWeaver syndrome
p3261
sg15
I2
sasa(dp3262
g2
S'Walker-Warburg congenital muscular dystrophy is an entity.'
p3263
sg4
(lp3264
sg6
(lp3265
(dp3266
g9
I0
sg10
VC0265221
p3267
sg12
I44
sg13
VWalker-Warburg congenital muscular dystrophy
p3268
sg15
I4
sasa(dp3269
g2
S'Marshall syndrome is an entity.'
p3270
sg4
(lp3271
sg6
(lp3272
(dp3273
g9
I0
sg10
VC0265235
p3274
sg12
I17
sg13
VMarshall syndrome
p3275
sg15
I2
sasa(dp3276
g2
S'Townes syndrome is an entity.'
p3277
sg4
(lp3278
sg6
(lp3279
(dp3280
g9
I0
sg10
VC0265246
p3281
sg12
I15
sg13
VTownes syndrome
p3282
sg15
I2
sasa(dp3283
g2
S'Coffin-Lowry syndrome is an entity.'
p3284
sg4
(lp3285
sg6
(lp3286
(dp3287
g9
I0
sg10
VC0265252
p3288
sg12
I21
sg13
VCoffin-Lowry syndrome
p3289
sg15
I2
sasa(dp3290
g2
S'Popliteal pterygium syndrome is an entity. \n'
p3291
sg4
(lp3292
sg6
(lp3293
(dp3294
g9
I0
sg10
VC0265259
p3295
sg12
I28
sg13
VPopliteal pterygium syndrome
p3296
sg15
I3
sasa(dp3297
g2
S'Senter syndrome is an entity.'
p3298
sg4
(lp3299
sg6
(lp3300
(dp3301
g9
I0
sg10
VC0265336
p3302
sg12
I15
sg13
VSenter syndrome
p3303
sg15
I2
sasa(dp3304
g2
S'Coffin-Siris syndrome is an entity.'
p3305
sg4
(lp3306
sg6
(lp3307
(dp3308
g9
I0
sg10
VC0265338
p3309
sg12
I21
sg13
VCoffin-Siris syndrome
p3310
sg15
I2
sasa(dp3311
g2
S'Rieger syndrome is an entity.'
p3312
sg4
(lp3313
sg6
(lp3314
(dp3315
g9
I0
sg10
VC0265341
p3316
sg12
I15
sg13
VRieger syndrome
p3317
sg15
I2
sasa(dp3318
g2
S'Cerebrocostomandibular Syndrome is an entity.'
p3319
sg4
(lp3320
sg6
(lp3321
(dp3322
g9
I0
sg10
VC0265342
p3323
sg12
I31
sg13
VCerebrocostomandibular Syndrome
p3324
sg15
I2
sasa(dp3325
g2
S'Lymphedema distichiasis syndrome is an entity.'
p3326
sg4
(lp3327
sg6
(lp3328
(dp3329
g9
I0
sg10
VC0265345
p3330
sg12
I32
sg13
VLymphedema distichiasis syndrome
p3331
sg15
I3
sasa(dp3332
g2
S'Dermatofibrosis lenticularis disseminata is an entity.'
p3333
sg4
(lp3334
sg6
(lp3335
(dp3336
g9
I0
sg10
VC0265514
p3337
sg12
I40
sg13
VDermatofibrosis lenticularis disseminata
p3338
sg15
I3
sasa(dp3339
g2
S'Talipes Equinovalgus is an entity.'
p3340
sg4
(lp3341
sg6
(lp3342
(dp3343
g9
I0
sg10
VC0265642
p3344
sg12
I20
sg13
VTalipes Equinovalgus
p3345
sg15
I2
sasa(dp3346
g2
S'Congenital hemivertebra is an entity.'
p3347
sg4
(lp3348
sg6
(lp3349
(dp3350
g9
I0
sg10
VC0265677
p3351
sg12
I23
sg13
VCongenital hemivertebra
p3352
sg15
I2
sasa(dp3353
g2
S'Supernumerary vertebra is an entity.'
p3354
sg4
(lp3355
sg6
(lp3356
(dp3357
g9
I0
sg10
VC0265681
p3358
sg12
I22
sg13
VSupernumerary vertebra
p3359
sg15
I2
sasa(dp3360
g2
S'Overriding aorta is an entity. \n'
p3361
sg4
(lp3362
sg6
(lp3363
(dp3364
g9
I0
sg10
VC0265886
p3365
sg12
I16
sg13
VOverriding aorta
p3366
sg15
I2
sasa(dp3367
g2
S'Ichthyosis linearis circumflexa is an entity.'
p3368
sg4
(lp3369
sg6
(lp3370
(dp3371
g9
I0
sg10
VC0265962
p3372
sg12
I31
sg13
VIchthyosis linearis circumflexa
p3373
sg15
I3
sasa(dp3374
g2
S'Porokeratosis, Disseminated Superficial Actinic is an entity.'
p3375
sg4
(lp3376
sg6
(lp3377
(dp3378
g9
I0
sg10
VC0265970
p3379
sg12
I47
sg13
VPorokeratosis, Disseminated Superficial Actinic
p3380
sg15
I4
sasa(dp3381
g2
S'Collagen nevus of skin is an entity.'
p3382
sg4
(lp3383
sg6
(lp3384
(dp3385
g9
I0
sg10
VC0265978
p3386
sg12
I22
sg13
VCollagen nevus of skin
p3387
sg15
I4
sasa(dp3388
g2
S'Congenital scar is an entity.'
p3389
sg4
(lp3390
sg6
(lp3391
(dp3392
g9
I0
sg10
VC0265989
p3393
sg12
I15
sg13
VCongenital scar
p3394
sg15
I2
sasa(dp3395
g2
S'Congenital maxillary hyperplasia is an entity.'
p3396
sg4
(lp3397
sg6
(lp3398
(dp3399
g9
I0
sg10
VC0266081
p3400
sg12
I32
sg13
VCongenital maxillary hyperplasia
p3401
sg15
I3
sasa(dp3402
g2
S'Congenital lip pits is an entity.'
p3403
sg4
(lp3404
sg6
(lp3405
(dp3406
g9
I0
sg10
VC0266092
p3407
sg12
I19
sg13
VCongenital lip pits
p3408
sg15
I3
sasa(dp3409
g2
S'Ectopic gastric tissue is an entity.'
p3410
sg4
(lp3411
sg6
(lp3412
(dp3413
g9
I0
sg10
VC0266153
p3414
sg12
I22
sg13
VEctopic gastric tissue
p3415
sg15
I3
sasa(dp3416
g2
S'Congenital hypoplasia of pancreas is an entity.'
p3417
sg4
(lp3418
sg6
(lp3419
(dp3420
g9
I0
sg10
VC0266267
p3421
sg12
I33
sg13
VCongenital hypoplasia of pancreas
p3422
sg15
I4
sasa(dp3423
g2
S'Pancreas divisum is an entity.'
p3424
sg4
(lp3425
sg6
(lp3426
(dp3427
g9
I0
sg10
VC0266270
p3428
sg12
I16
sg13
VPancreas divisum
p3429
sg15
I2
sasa(dp3430
g2
S'Persistent umbilical sinus is an entity. \n'
p3431
sg4
(lp3432
sg6
(lp3433
(dp3434
g9
I0
sg10
VC0266357
p3435
sg12
I26
sg13
VPersistent umbilical sinus
p3436
sg15
I3
sasa(dp3437
g2
S'Septate vagina is an entity.'
p3438
sg4
(lp3439
sg6
(lp3440
(dp3441
g9
I0
sg10
VC0266411
p3442
sg12
I14
sg13
VSeptate vagina
p3443
sg15
I2
sasa(dp3444
g2
S'Congenital anomaly of testis is an entity.'
p3445
sg4
(lp3446
sg6
(lp3447
(dp3448
g9
I0
sg10
VC0266423
p3449
sg12
I28
sg13
VCongenital anomaly of testis
p3450
sg15
I4
sasa(dp3451
g2
S'Congenital anomaly of brain is an entity.'
p3452
sg4
(lp3453
sg6
(lp3454
(dp3455
g9
I0
sg10
VC0266449
p3456
sg12
I27
sg13
VCongenital anomaly of brain
p3457
sg15
I4
sasa(dp3458
g2
S'Meningoencephalocele is an entity.'
p3459
sg4
(lp3460
sg6
(lp3461
(dp3462
g9
I0
sg10
VC0266456
p3463
sg12
I20
sg13
VMeningoencephalocele
p3464
sg15
I1
sasa(dp3465
g2
S'Irido-corneal dysgenesis is an entity.'
p3466
sg4
(lp3467
sg6
(lp3468
(dp3469
g9
I0
sg10
VC0266525
p3470
sg12
I24
sg13
VIrido-corneal dysgenesis
p3471
sg15
I2
sasa(dp3472
g2
S'Ablepharon is an entity.'
p3473
sg4
(lp3474
sg6
(lp3475
(dp3476
g9
I0
sg10
VC0266574
p3477
sg12
I10
sg13
VAblepharon
p3478
sg15
I1
sasa(dp3479
g2
S'Abnormal fetus is an entity.'
p3480
sg4
(lp3481
sg6
(lp3482
(dp3483
g9
I0
sg10
VC0266652
p3484
sg12
I14
sg13
VAbnormal fetus
p3485
sg15
I2
sasa(dp3486
g2
S'Abnormal yolk sac is an entity.'
p3487
sg4
(lp3488
sg6
(lp3489
(dp3490
g9
I0
sg10
VC0266782
p3491
sg12
I17
sg13
VAbnormal yolk sac
p3492
sg15
I3
sasa(dp3493
g2
S'Chronic Periodontitis is an entity.'
p3494
sg4
(lp3495
sg6
(lp3496
(dp3497
g9
I0
sg10
VC0266929
p3498
sg12
I21
sg13
VChronic Periodontitis
p3499
sg15
I2
sasa(dp3500
g2
S'Gastroduodenitis is an entity. \n'
p3501
sg4
(lp3502
sg6
(lp3503
(dp3504
g9
I0
sg10
VC0267166
p3505
sg12
I16
sg13
VGastroduodenitis
p3506
sg15
I1
sasa(dp3507
g2
S'Gastric Antral Vascular Ectasia is an entity.'
p3508
sg4
(lp3509
sg6
(lp3510
(dp3511
g9
I0
sg10
VC0267211
p3512
sg12
I31
sg13
VGastric Antral Vascular Ectasia
p3513
sg15
I4
sasa(dp3514
g2
S'Ulceration of colon is an entity.'
p3515
sg4
(lp3516
sg6
(lp3517
(dp3518
g9
I0
sg10
VC0267491
p3519
sg12
I19
sg13
VUlceration of colon
p3520
sg15
I3
sasa(dp3521
g2
S'Liver cyst is an entity.'
p3522
sg4
(lp3523
sg6
(lp3524
(dp3525
g9
I0
sg10
VC0267834
p3526
sg12
I10
sg13
VLiver cyst
p3527
sg15
I2
sasa(dp3528
g2
S'Chronic cholangitis is an entity.'
p3529
sg4
(lp3530
sg6
(lp3531
(dp3532
g9
I0
sg10
VC0267918
p3533
sg12
I19
sg13
VChronic cholangitis
p3534
sg15
I2
sasa(dp3535
g2
S'Hyperkalemia, diminished renal excretion is an entity.'
p3536
sg4
(lp3537
sg6
(lp3538
(dp3539
g9
I0
sg10
VC0268024
p3540
sg12
I40
sg13
VHyperkalemia, diminished renal excretion
p3541
sg15
I4
sasa(dp3542
g2
S'Indian childhood cirrhosis is an entity.'
p3543
sg4
(lp3544
sg6
(lp3545
(dp3546
g9
I0
sg10
VC0268074
p3547
sg12
I26
sg13
VIndian childhood cirrhosis
p3548
sg15
I3
sasa(dp3549
g2
S'Xeroderma pigmentosum, group G is an entity.'
p3550
sg4
(lp3551
sg6
(lp3552
(dp3553
g9
I0
sg10
VC0268141
p3554
sg12
I30
sg13
VXeroderma pigmentosum, group G
p3555
sg15
I4
sasa(dp3556
g2
S'Glucose-6-phosphate transport defect is an entity.'
p3557
sg4
(lp3558
sg6
(lp3559
(dp3560
g9
I0
sg10
VC0268146
p3561
sg12
I36
sg13
VGlucose-6-phosphate transport defect
p3562
sg15
I3
sasa(dp3563
g2
S'Lactase Deficiency, Congenital is an entity.'
p3564
sg4
(lp3565
(dp3566
g9
I0
sg585
VP09848
p3567
sg12
I7
sg13
VLactase
p3568
sg15
I1
sasg6
(lp3569
(dp3570
g9
I0
sg10
VC0268179
p3571
sg12
I30
sg13
VLactase Deficiency, Congenital
p3572
sg15
I3
sasa(dp3573
g2
S'alpha, alpha-Trehalase deficiency is an entity. \n'
p3574
sg4
(lp3575
(dp3576
g9
I7
sg585
g586
sg12
I15
sg13
Valpha-Trehalase
p3577
sg15
I1
sasg6
(lp3578
(dp3579
g9
I0
sg10
VC0268187
p3580
sg12
I33
sg13
Valpha, alpha-Trehalase deficiency
p3581
sg15
I3
sasa(dp3582
g2
S'Type I Mucolipidosis is an entity.'
p3583
sg4
(lp3584
sg6
(lp3585
(dp3586
g9
I0
sg10
VC0268226
p3587
sg12
I20
sg13
VType I Mucolipidosis
p3588
sg15
I3
sasa(dp3589
g2
S'Metachromatic Leukodystrophy due to Saposin B Deficiency is an entity.'
p3590
sg4
(lp3591
(dp3592
g9
I36
sg585
VP02743
p3593
sg12
I9
sg13
VSaposin B
p3594
sg15
I2
sasg6
(lp3595
(dp3596
g9
I0
sg10
VC0268262
p3597
sg12
I56
sg13
VMetachromatic Leukodystrophy due to Saposin B Deficiency
p3598
sg15
I7
sasa(dp3599
g2
S'Congenital adrenal hyperplasia due to 11-Beta-hydroxylase deficiency is an entity.'
p3600
sg4
(lp3601
sg6
(lp3602
(dp3603
g9
I0
sg10
VC0268292
p3604
sg12
I68
sg13
VCongenital adrenal hyperplasia due to 11-Beta-hydroxylase deficiency
p3605
sg15
I7
sasa(dp3606
g2
S'Corticosterone Methyl Oxidase Type I Deficiency is an entity.'
p3607
sg4
(lp3608
sg6
(lp3609
(dp3610
g9
I0
sg10
VC0268293
p3611
sg12
I47
sg13
VCorticosterone Methyl Oxidase Type I Deficiency
p3612
sg15
I6
sasa(dp3613
g2
S'Cholestasis of pregnancy is an entity.'
p3614
sg4
(lp3615
sg6
(lp3616
(dp3617
g9
I0
sg10
VC0268318
p3618
sg12
I24
sg13
VCholestasis of pregnancy
p3619
sg15
I3
sasa(dp3620
g2
S'Ehlers-Danlos syndrome, type 3 (disorder) is an entity.'
p3621
sg4
(lp3622
sg6
(lp3623
(dp3624
g9
I0
sg10
VC0268337
p3625
sg12
I30
sg13
VEhlers-Danlos syndrome, type 3
p3626
sg15
I4
sasa(dp3627
g2
S'Systemic amyloidosis is an entity.'
p3628
sg4
(lp3629
sg6
(lp3630
(dp3631
g9
I0
sg10
VC0281479
p3632
sg12
I20
sg13
VSystemic amyloidosis
p3633
sg15
I2
sasa(dp3634
g2
S'Hereditary Cerebral Amyloid Angiopathy, Dutch Type is an entity.'
p3635
sg4
(lp3636
sg6
(lp3637
(dp3638
g9
I0
sg10
VC0268394
p3639
sg12
I50
sg13
VHereditary Cerebral Amyloid Angiopathy, Dutch Type
p3640
sg15
I6
sasa(dp3641
g2
S'Hemodialysis-associated amyloidosis is an entity.'
p3642
sg4
(lp3643
sg6
(lp3644
(dp3645
g9
I0
sg10
VC0268405
p3646
sg12
I35
sg13
VHemodialysis-associated amyloidosis
p3647
sg15
I2
sasa(dp3648
g2
S'Hyperphosphatasemia with bone disease is an entity. \n'
p3649
sg4
(lp3650
sg6
(lp3651
(dp3652
g9
I0
sg10
VC0268414
p3653
sg12
I37
sg13
VHyperphosphatasemia with bone disease
p3654
sg15
I4
sasa(dp3655
g2
S'Transient hyperphenylalaninemia is an entity.'
p3656
sg4
(lp3657
sg6
(lp3658
(dp3659
g9
I0
sg10
VC0268464
p3660
sg12
I31
sg13
VTransient hyperphenylalaninemia
p3661
sg15
I2
sasa(dp3662
g2
S'Ochronotic arthritis is an entity.'
p3663
sg4
(lp3664
sg6
(lp3665
(dp3666
g9
I0
sg10
VC0268493
p3667
sg12
I20
sg13
VOchronotic arthritis
p3668
sg15
I2
sasa(dp3669
g2
S'Oculocutaneous albinism type 1 is an entity.'
p3670
sg4
(lp3671
sg6
(lp3672
(dp3673
g9
I0
sg10
VC0268494
p3674
sg12
I30
sg13
VOculocutaneous albinism type 1
p3675
sg15
I4
sasa(dp3676
g2
S'Ocular albinism, type II is an entity.'
p3677
sg4
(lp3678
sg6
(lp3679
(dp3680
g9
I0
sg10
VC0268505
p3681
sg12
I24
sg13
VOcular albinism, type II
p3682
sg15
I4
sasa(dp3683
g2
S'Glutamate-cysteine ligase deficiency is an entity.'
p3684
sg4
(lp3685
sg6
(lp3686
(dp3687
g9
I0
sg10
VC0268523
p3688
sg12
I36
sg13
VGlutamate-cysteine ligase deficiency
p3689
sg15
I3
sasa(dp3690
g2
S'Proline dehydrogenase deficiency is an entity.'
p3691
sg4
(lp3692
(dp3693
g9
I0
sg585
VP49366
p3694
sg12
I21
sg13
VProline dehydrogenase
p3695
sg15
I2
sasg6
(lp3696
(dp3697
g9
I0
sg10
VC0268529
p3698
sg12
I32
sg13
VProline dehydrogenase deficiency
p3699
sg15
I3
sasa(dp3700
g2
S'Prolinuria is an entity.'
p3701
sg4
(lp3702
sg6
(lp3703
(dp3704
g9
I0
sg10
VC0268534
p3705
sg12
I10
sg13
VProlinuria
p3706
sg15
I1
sasa(dp3707
g2
S'Hyperammonemia, type III is an entity.'
p3708
sg4
(lp3709
sg6
(lp3710
(dp3711
g9
I0
sg10
VC0268543
p3712
sg12
I24
sg13
VHyperammonemia, type III
p3713
sg15
I3
sasa(dp3714
g2
S'Hyperargininemia is an entity.'
p3715
sg4
(lp3716
sg6
(lp3717
(dp3718
g9
I0
sg10
VC0268548
p3719
sg12
I16
sg13
VHyperargininemia
p3720
sg15
I1
sasa(dp3721
g2
S'Urethrovaginal fistula is an entity. \n'
p3722
sg4
(lp3723
sg6
(lp3724
(dp3725
g9
I0
sg10
VC0269133
p3726
sg12
I22
sg13
VUrethrovaginal fistula
p3727
sg15
I2
sasa(dp3728
g2
S'Induration of breast is an entity.'
p3729
sg4
(lp3730
sg6
(lp3731
(dp3732
g9
I0
sg10
VC0269268
p3733
sg12
I20
sg13
VInduration of breast
p3734
sg15
I3
sasa(dp3735
g2
S'Schizoaffective disorder, bipolar type is an entity.'
p3736
sg4
(lp3737
sg6
(lp3738
(dp3739
g9
I0
sg10
VC0270496
p3740
sg12
I38
sg13
VSchizoaffective disorder, bipolar type
p3741
sg15
I4
sasa(dp3742
g2
S'Coprophilia (disorder) is an entity.'
p3743
sg4
(lp3744
sg6
(lp3745
(dp3746
g9
I0
sg10
VC0270500
p3747
sg12
I11
sg13
VCoprophilia
p3748
sg15
I1
sasa(dp3749
g2
S'Infantile Neuroaxonal Dystrophy is an entity.'
p3750
sg4
(lp3751
sg6
(lp3752
(dp3753
g9
I0
sg10
VC0270724
p3754
sg12
I31
sg13
VInfantile Neuroaxonal Dystrophy
p3755
sg15
I3
sasa(dp3756
g2
S'Essential Tremor is an entity.'
p3757
sg4
(lp3758
sg6
(lp3759
(dp3760
g9
I0
sg10
VC0270736
p3761
sg12
I16
sg13
VEssential Tremor
p3762
sg15
I2
sasa(dp3763
g2
S'Athetoid cerebral palsy is an entity.'
p3764
sg4
(lp3765
sg6
(lp3766
(dp3767
g9
I0
sg10
VC0270742
p3768
sg12
I23
sg13
VAthetoid cerebral palsy
p3769
sg15
I3
sasa(dp3770
g2
S'Marie Cerebellar Ataxia is an entity.'
p3771
sg4
(lp3772
sg6
(lp3773
(dp3774
g9
I0
sg10
VC0270749
p3775
sg12
I23
sg13
VMarie Cerebellar Ataxia
p3776
sg15
I3
sasa(dp3777
g2
S'Acute necrotizing myelitis is an entity.'
p3778
sg4
(lp3779
sg6
(lp3780
(dp3781
g9
I0
sg10
VC0270779
p3782
sg12
I26
sg13
VAcute necrotizing myelitis
p3783
sg15
I3
sasa(dp3784
g2
S'Degenerative myelopathy is an entity.'
p3785
sg4
(lp3786
sg6
(lp3787
(dp3788
g9
I0
sg10
VC0270780
p3789
sg12
I23
sg13
VDegenerative myelopathy
p3790
sg15
I2
sasa(dp3791
g2
S'Gelastic Epilepsy is an entity. \n'
p3792
sg4
(lp3793
sg6
(lp3794
(dp3795
g9
I0
sg10
VC0270820
p3796
sg12
I17
sg13
VGelastic Epilepsy
p3797
sg15
I2
sasa(dp3798
g2
S'Facial Myokymia is an entity.'
p3799
sg4
(lp3800
sg6
(lp3801
(dp3802
g9
I0
sg10
VC0270871
p3803
sg12
I15
sg13
VFacial Myokymia
p3804
sg15
I2
sasa(dp3805
g2
S'Charcot-Marie-Tooth Disease, Type Ia (disorder) is an entity.'
p3806
sg4
(lp3807
sg6
(lp3808
(dp3809
g9
I0
sg10
VC0270911
p3810
sg12
I36
sg13
VCharcot-Marie-Tooth Disease, Type Ia
p3811
sg15
I4
sasa(dp3812
g2
S'Peripheral demyelinating neuropathy is an entity.'
p3813
sg4
(lp3814
sg6
(lp3815
(dp3816
g9
I0
sg10
VC0270922
p3817
sg12
I35
sg13
VPeripheral demyelinating neuropathy
p3818
sg15
I3
sasa(dp3819
g2
S'Congenital myopathy (disorder) is an entity.'
p3820
sg4
(lp3821
sg6
(lp3822
(dp3823
g9
I0
sg10
VC0270960
p3824
sg12
I19
sg13
VCongenital myopathy
p3825
sg15
I2
sasa(dp3826
g2
S'Rhegmatogenous retinal detachment is an entity.'
p3827
sg4
(lp3828
sg6
(lp3829
(dp3830
g9
I0
sg10
VC0271055
p3831
sg12
I33
sg13
VRhegmatogenous retinal detachment
p3832
sg15
I3
sasa(dp3833
g2
S'Retinoschisis, Juvenile, X-Linked is an entity.'
p3834
sg4
(lp3835
sg6
(lp3836
(dp3837
g9
I0
sg10
VC0271091
p3838
sg12
I33
sg13
VRetinoschisis, Juvenile, X-Linked
p3839
sg15
I3
sasa(dp3840
g2
S'Blindness, Legal is an entity.'
p3841
sg4
(lp3842
sg6
(lp3843
(dp3844
g9
I0
sg10
VC0271215
p3845
sg12
I16
sg13
VBlindness, Legal
p3846
sg15
I2
sasa(dp3847
g2
S'Compression of optic nerve is an entity.'
p3848
sg4
(lp3849
sg6
(lp3850
(dp3851
g9
I0
sg10
VC0271344
p3852
sg12
I26
sg13
VCompression of optic nerve
p3853
sg15
I4
sasa(dp3854
g2
S'Periodic Alternating Nystagmus is an entity.'
p3855
sg4
(lp3856
sg6
(lp3857
(dp3858
g9
I0
sg10
VC0271382
p3859
sg12
I30
sg13
VPeriodic Alternating Nystagmus
p3860
sg15
I3
sasa(dp3861
g2
S'Low frequency deafness is an entity. \n'
p3862
sg4
(lp3863
sg6
(lp3864
(dp3865
g9
I0
sg10
VC0271514
p3866
sg12
I22
sg13
VLow frequency deafness
p3867
sg15
I3
sasa(dp3868
g2
S'Isolated lutropin deficiency (disorder) is an entity.'
p3869
sg4
(lp3870
sg6
(lp3871
(dp3872
g9
I0
sg10
VC0271582
p3873
sg12
I28
sg13
VIsolated lutropin deficiency
p3874
sg15
I3
sasa(dp3875
g2
S'Ketotic hypoglycemia is an entity.'
p3876
sg4
(lp3877
sg6
(lp3878
(dp3879
g9
I0
sg10
VC0271713
p3880
sg12
I20
sg13
VKetotic hypoglycemia
p3881
sg15
I2
sasa(dp3882
g2
S'Silent thyroiditis is an entity.'
p3883
sg4
(lp3884
sg6
(lp3885
(dp3886
g9
I0
sg10
VC0271814
p3887
sg12
I18
sg13
VSilent thyroiditis
p3888
sg15
I2
sasa(dp3889
g2
S'Parathyroid hyperplasia is an entity.'
p3890
sg4
(lp3891
sg6
(lp3892
(dp3893
g9
I0
sg10
VC0271844
p3894
sg12
I23
sg13
VParathyroid hyperplasia
p3895
sg15
I2
sasa(dp3896
g2
S'delta-Thalassemia is an entity.'
p3897
sg4
(lp3898
sg6
(lp3899
(dp3900
g9
I0
sg10
VC0271990
p3901
sg12
I17
sg13
Vdelta-Thalassemia
p3902
sg15
I1
sasa(dp3903
g2
S'delta^0^ Thalassemia is an entity.'
p3904
sg4
(lp3905
sg6
(lp3906
(dp3907
g9
I0
sg10
VC0271991
p3908
sg12
I20
sg13
Vdelta^0^ Thalassemia
p3909
sg15
I2
sasa(dp3910
g2
S'Reticular dysgenesis is an entity.'
p3911
sg4
(lp3912
sg6
(lp3913
(dp3914
g9
I0
sg10
VC0272167
p3915
sg12
I20
sg13
VReticular dysgenesis
p3916
sg15
I2
sasa(dp3917
g2
S'Complement abnormality is an entity.'
p3918
sg4
(lp3919
sg6
(lp3920
(dp3921
g9
I0
sg10
VC0272241
p3922
sg12
I22
sg13
VComplement abnormality
p3923
sg15
I2
sasa(dp3924
g2
S'Drug-induced immune thrombocytopenia is an entity.'
p3925
sg4
(lp3926
sg6
(lp3927
(dp3928
g9
I0
sg10
VC0272290
p3929
sg12
I36
sg13
VDrug-induced immune thrombocytopenia
p3930
sg15
I3
sasa(dp3931
g2
S'Thrombocytopenia due to sequestration is an entity. \n'
p3932
sg4
(lp3933
sg6
(lp3934
(dp3935
g9
I0
sg10
VC0272296
p3936
sg12
I37
sg13
VThrombocytopenia due to sequestration
p3937
sg15
I4
sasa(dp3938
g2
S'Hereditary factor II deficiency disease is an entity.'
p3939
sg4
(lp3940
(dp3941
g9
I11
sg585
g586
sg12
I9
sg13
Vfactor II
p3942
sg15
I2
sasg6
(lp3943
(dp3944
g9
I0
sg10
VC0272317
p3945
sg12
I39
sg13
VHereditary factor II deficiency disease
p3946
sg15
I5
sasa(dp3947
g2
S'Hereditary factor VII deficiency disease is an entity.'
p3948
sg4
(lp3949
(dp3950
g9
I11
sg585
VP08709
p3951
sg12
I10
sg13
Vfactor VII
p3952
sg15
I2
sasg6
(lp3953
(dp3954
g9
I0
sg10
VC0272320
p3955
sg12
I40
sg13
VHereditary factor VII deficiency disease
p3956
sg15
I5
sasa(dp3957
g2
S'Tuberculosis, Central Nervous System is an entity.'
p3958
sg4
(lp3959
sg6
(lp3960
(dp3961
g9
I0
sg10
VC0275904
p3962
sg12
I36
sg13
VTuberculosis, Central Nervous System
p3963
sg15
I4
sasa(dp3964
g2
S"Glasser's disease is an entity."
p3965
sg4
(lp3966
sg6
(lp3967
sa(dp3968
g2
S'Respiratory syncytial virus bronchiolitis is an entity.'
p3969
sg4
(lp3970
sg6
(lp3971
(dp3972
g9
I0
sg10
VC0276340
p3973
sg12
I41
sg13
VRespiratory syncytial virus bronchiolitis
p3974
sg15
I4
sasa(dp3975
g2
S'Human immunodeficiency virus II infection is an entity.'
p3976
sg4
(lp3977
sg6
(lp3978
(dp3979
g9
I0
sg10
VC0276501
p3980
sg12
I41
sg13
VHuman immunodeficiency virus II infection
p3981
sg15
I5
sasa(dp3982
g2
S'Chronic viral hepatitis is an entity.'
p3983
sg4
(lp3984
sg6
(lp3985
(dp3986
g9
I0
sg10
VC0276623
p3987
sg12
I23
sg13
VChronic viral hepatitis
p3988
sg15
I3
sasa(dp3989
g2
S"Traveler's diarrhea is an entity."
p3990
sg4
(lp3991
sg6
(lp3992
(dp3993
g9
I0
sg10
VC0277528
p3994
sg12
I19
sg13
VTraveler's diarrhea
p3995
sg15
I2
sasa(dp3996
g2
S'Normal bowel habits is an entity.'
p3997
sg4
(lp3998
sg6
(lp3999
(dp4000
g9
I0
sg10
VC0278007
p4001
sg12
I19
sg13
VNormal bowel habits
p4002
sg15
I3
sasa(dp4003
g2
S'recurrent gastric cancer is an entity. \n'
p4004
sg4
(lp4005
sg6
(lp4006
(dp4007
g9
I0
sg10
VC0278502
p4008
sg12
I24
sg13
Vrecurrent gastric cancer
p4009
sg15
I3
sasa(dp4010
g2
S'Non-small cell lung cancer stage I is an entity.'
p4011
sg4
(lp4012
sg6
(lp4013
(dp4014
g9
I0
sg10
VC0278504
p4015
sg12
I34
sg13
VNon-small cell lung cancer stage I
p4016
sg15
I6
sasa(dp4017
g2
S'Medulloblastoma, Childhood is an entity.'
p4018
sg4
(lp4019
sg6
(lp4020
(dp4021
g9
I0
sg10
VC0278510
p4022
sg12
I26
sg13
VMedulloblastoma, Childhood
p4023
sg15
I2
sasa(dp4024
g2
S'Esophageal neoplasm metastatic is an entity.'
p4025
sg4
(lp4026
sg6
(lp4027
(dp4028
g9
I0
sg10
VC0278562
p4029
sg12
I30
sg13
VEsophageal neoplasm metastatic
p4030
sg15
I3
sasa(dp4031
g2
S'refractory plasma cell neoplasm is an entity.'
p4032
sg4
(lp4033
sg6
(lp4034
(dp4035
g9
I0
sg10
VC0278620
p4036
sg12
I31
sg13
Vrefractory plasma cell neoplasm
p4037
sg15
I4
sasa(dp4038
g2
S'adult glioblastoma is an entity.'
p4039
sg4
(lp4040
sg6
(lp4041
(dp4042
g9
I0
sg10
VC0278878
p4043
sg12
I18
sg13
Vadult glioblastoma
p4044
sg15
I2
sasa(dp4045
g2
S'stage I melanoma is an entity.'
p4046
sg4
(lp4047
sg6
(lp4048
(dp4049
g9
I0
sg10
VC0278880
p4050
sg12
I16
sg13
Vstage I melanoma
p4051
sg15
I3
sasa(dp4052
g2
S'stage II melanoma is an entity.'
p4053
sg4
(lp4054
sg6
(lp4055
(dp4056
g9
I0
sg10
VC0278881
p4057
sg12
I17
sg13
Vstage II melanoma
p4058
sg15
I3
sasa(dp4059
g2
S'Non-small cell lung cancer metastatic is an entity.'
p4060
sg4
(lp4061
sg6
(lp4062
(dp4063
g9
I0
sg10
VC0278987
p4064
sg12
I37
sg13
VNon-small cell lung cancer metastatic
p4065
sg15
I5
sasa(dp4066
g2
S'Liver and Intrahepatic Biliary Tract Carcinoma is an entity.'
p4067
sg4
(lp4068
sg6
(lp4069
(dp4070
g9
I0
sg10
VC0221287
p4071
sg12
I46
sg13
VLiver and Intrahepatic Biliary Tract Carcinoma
p4072
sg15
I6
sasa(dp4073
g2
S'Lobular carcinoma in situ of breast is an entity. \n'
p4074
sg4
(lp4075
sg6
(lp4076
(dp4077
g9
I0
sg10
VC0279563
p4078
sg12
I35
sg13
VLobular carcinoma in situ of breast
p4079
sg15
I6
sasa(dp4080
g2
S'B-cell adult acute lymphoblastic leukemia is an entity.'
p4081
sg4
(lp4082
sg6
(lp4083
(dp4084
g9
I0
sg10
VC0279593
p4085
sg12
I41
sg13
VB-cell adult acute lymphoblastic leukemia
p4086
sg15
I5
sasa(dp4087
g2
S'Fibroblastic osteosarcoma is an entity.'
p4088
sg4
(lp4089
sg6
(lp4090
(dp4091
g9
I0
sg10
VC0279602
p4092
sg12
I25
sg13
VFibroblastic osteosarcoma
p4093
sg15
I2
sasa(dp4094
g2
S'intestinal adenocarcinoma of the stomach is an entity.'
p4095
sg4
(lp4096
sg6
(lp4097
(dp4098
g9
I0
sg10
VC0279633
p4099
sg12
I40
sg13
Vintestinal adenocarcinoma of the stomach
p4100
sg15
I5
sasa(dp4101
g2
S'Cervical Squamous Cell Carcinoma is an entity.'
p4102
sg4
(lp4103
sg6
(lp4104
(dp4105
g9
I0
sg10
VC0279671
p4106
sg12
I32
sg13
VCervical Squamous Cell Carcinoma
p4107
sg15
I4
sasa(dp4108
g2
S'Cervical Adenocarcinoma is an entity.'
p4109
sg4
(lp4110
sg6
(lp4111
(dp4112
g9
I0
sg10
VC0279672
p4113
sg12
I23
sg13
VCervical Adenocarcinoma
p4114
sg15
I2
sasa(dp4115
g2
S'Squamous cell carcinoma of oropharynx is an entity.'
p4116
sg4
(lp4117
sg6
(lp4118
(dp4119
g9
I0
sg10
VC0280313
p4120
sg12
I37
sg13
VSquamous cell carcinoma of oropharynx
p4121
sg15
I5
sasa(dp4122
g2
S'stage IV squamous cell carcinoma of the hypopharynx is an entity.'
p4123
sg4
(lp4124
sg6
(lp4125
(dp4126
g9
I0
sg10
VC0280391
p4127
sg12
I51
sg13
Vstage IV squamous cell carcinoma of the hypopharynx
p4128
sg15
I8
sasa(dp4129
g2
S'Juvenile Pilocytic Astrocytoma is an entity.'
p4130
sg4
(lp4131
sg6
(lp4132
(dp4133
g9
I0
sg10
VC0280783
p4134
sg12
I30
sg13
VJuvenile Pilocytic Astrocytoma
p4135
sg15
I3
sasa(dp4136
g2
S'Mixed Oligodendroglioma-Astrocytoma is an entity.'
p4137
sg4
(lp4138
sg6
(lp4139
(dp4140
g9
I0
sg10
VC0280793
p4141
sg12
I35
sg13
VMixed Oligodendroglioma-Astrocytoma
p4142
sg15
I2
sasa(dp4143
g2
S'Bone Marrow Suppression is an entity. \n'
p4144
sg4
(lp4145
sg6
(lp4146
(dp4147
g9
I12
sg10
VC0221103
p4148
sg12
I11
sg13
VSuppression
p4149
sg15
I1
sasa(dp4150
g2
S'Retinal infarction is an entity.'
p4151
sg4
(lp4152
sg6
(lp4153
(dp4154
g9
I0
sg10
VC0281967
p4155
sg12
I18
sg13
VRetinal infarction
p4156
sg15
I2
sasa(dp4157
g2
S'Phosphate Diabetes is an entity.'
p4158
sg4
(lp4159
sg6
(lp4160
(dp4161
g9
I0
sg10
VC0282201
p4162
sg12
I18
sg13
VPhosphate Diabetes
p4163
sg15
I2
sasa(dp4164
g2
S'Sneddon Syndrome is an entity.'
p4165
sg4
(lp4166
sg6
(lp4167
(dp4168
g9
I0
sg10
VC0282492
p4169
sg12
I16
sg13
VSneddon Syndrome
p4170
sg15
I2
sasa(dp4171
g2
S'Primary Progressive Aphasia (disorder) is an entity.'
p4172
sg4
(lp4173
sg6
(lp4174
(dp4175
g9
I0
sg10
VC0282513
p4176
sg12
I27
sg13
VPrimary Progressive Aphasia
p4177
sg15
I3
sasa(dp4178
g2
S'Peroxisomal Disorders is an entity.'
p4179
sg4
(lp4180
sg6
(lp4181
(dp4182
g9
I0
sg10
VC0282528
p4183
sg12
I21
sg13
VPeroxisomal Disorders
p4184
sg15
I2
sasa(dp4185
g2
S'Chondrodysplasia Punctata, Rhizomelic is an entity.'
p4186
sg4
(lp4187
sg6
(lp4188
(dp4189
g9
I0
sg10
VC0282529
p4190
sg12
I37
sg13
VChondrodysplasia Punctata, Rhizomelic
p4191
sg15
I3
sasa(dp4192
g2
S'Myomatous neoplasm is an entity.'
p4193
sg4
(lp4194
sg6
(lp4195
(dp4196
g9
I0
sg10
VC0282606
p4197
sg12
I18
sg13
VMyomatous neoplasm
p4198
sg15
I2
sasa(dp4199
g2
S'SMITH DISEASE is an entity.'
p4200
sg4
(lp4201
sg6
(lp4202
sa(dp4203
g2
S'Fibrous nodule is an entity.'
p4204
sg4
(lp4205
sg6
(lp4206
(dp4207
g9
I0
sg10
VC0332561
p4208
sg12
I14
sg13
VFibrous nodule
p4209
sg15
I2
sasa(dp4210
g2
S'Myopathic facies is an entity. \n'
p4211
sg4
(lp4212
sg6
(lp4213
(dp4214
g9
I0
sg10
VC0332615
p4215
sg12
I16
sg13
VMyopathic facies
p4216
sg15
I2
sasa(dp4217
g2
S'Congenital hypertrophy is an entity.'
p4218
sg4
(lp4219
sg6
(lp4220
(dp4221
g9
I0
sg10
VC0332887
p4222
sg12
I22
sg13
VCongenital hypertrophy
p4223
sg15
I2
sasa(dp4224
g2
S'Hernia sac is an entity.'
p4225
sg4
(lp4226
sg6
(lp4227
(dp4228
g9
I0
sg10
VC0333062
p4229
sg12
I10
sg13
VHernia sac
p4230
sg15
I2
sasa(dp4231
g2
S'Pseudocyst is an entity.'
p4232
sg4
(lp4233
sg6
(lp4234
(dp4235
g9
I0
sg10
VC0333161
p4236
sg12
I10
sg13
VPseudocyst
p4237
sg15
I1
sasa(dp4238
g2
S'Occlusive thrombus is an entity.'
p4239
sg4
(lp4240
sg6
(lp4241
(dp4242
g9
I0
sg10
VC0333203
p4243
sg12
I18
sg13
VOcclusive thrombus
p4244
sg15
I2
sasa(dp4245
g2
S'Hemiatrophy is an entity.'
p4246
sg4
(lp4247
sg6
(lp4248
(dp4249
g9
I0
sg10
VC0333662
p4250
sg12
I11
sg13
VHemiatrophy
p4251
sg15
I1
sasa(dp4252
g2
S'Squamous intraepithelial lesion is an entity.'
p4253
sg4
(lp4254
sg6
(lp4255
(dp4256
g9
I0
sg10
VC0333873
p4257
sg12
I31
sg13
VSquamous intraepithelial lesion
p4258
sg15
I3
sasa(dp4259
g2
S'Combined small cell carcinoma is an entity.'
p4260
sg4
(lp4261
sg6
(lp4262
(dp4263
g9
I0
sg10
VC0334240
p4264
sg12
I29
sg13
VCombined small cell carcinoma
p4265
sg15
I4
sasa(dp4266
g2
S'Adenocarcinoma, metastatic is an entity.'
p4267
sg4
(lp4268
sg6
(lp4269
(dp4270
g9
I0
sg10
VC0334277
p4271
sg12
I26
sg13
VAdenocarcinoma, metastatic
p4272
sg15
I2
sasa(dp4273
g2
S'Microfollicular adenoma is an entity.'
p4274
sg4
(lp4275
sg6
(lp4276
(dp4277
g9
I0
sg10
VC0334328
p4278
sg12
I23
sg13
VMicrofollicular adenoma
p4279
sg15
I2
sasa(dp4280
g2
S'Secretory breast carcinoma is an entity. \n'
p4281
sg4
(lp4282
sg6
(lp4283
(dp4284
g9
I0
sg10
VC0334371
p4285
sg12
I26
sg13
VSecretory breast carcinoma
p4286
sg15
I3
sasa(dp4287
g2
S'Fibrous papule of nose is an entity.'
p4288
sg4
(lp4289
sg6
(lp4290
(dp4291
g9
I0
sg10
VC0334428
p4292
sg12
I22
sg13
VFibrous papule of nose
p4293
sg15
I4
sasa(dp4294
g2
S'Teratoma, Malignant is an entity.'
p4295
sg4
(lp4296
sg6
(lp4297
(dp4298
g9
I0
sg10
VC0334520
p4299
sg12
I19
sg13
VTeratoma, Malignant
p4300
sg15
I2
sasa(dp4301
g2
S'Hemangiopericytoma, Malignant is an entity.'
p4302
sg4
(lp4303
sg6
(lp4304
(dp4305
g9
I0
sg10
VC0334542
p4306
sg12
I29
sg13
VHemangiopericytoma, Malignant
p4307
sg15
I2
sasa(dp4308
g2
S'Myxoid chondrosarcoma is an entity.'
p4309
sg4
(lp4310
sg6
(lp4311
(dp4312
g9
I0
sg10
VC0334551
p4313
sg12
I21
sg13
VMyxoid chondrosarcoma
p4314
sg15
I2
sasa(dp4315
g2
S'Malignant lymphoma - centrocytic is an entity.'
p4316
sg4
(lp4317
sg6
(lp4318
(dp4319
g9
I0
sg10
VC0334635
p4320
sg12
I32
sg13
VMalignant lymphoma - centrocytic
p4321
sg15
I4
sasa(dp4322
g2
S'Dementia of frontal lobe type is an entity.'
p4323
sg4
(lp4324
sg6
(lp4325
(dp4326
g9
I0
sg10
VC0338455
p4327
sg12
I29
sg13
VDementia of frontal lobe type
p4328
sg15
I5
sasa(dp4329
g2
S'Vertebral Artery Dissection is an entity.'
p4330
sg4
(lp4331
sg6
(lp4332
(dp4333
g9
I0
sg10
VC0338586
p4334
sg12
I27
sg13
VVertebral Artery Dissection
p4335
sg15
I3
sasa(dp4336
g2
S'Macular retinoschisis is an entity.'
p4337
sg4
(lp4338
sg6
(lp4339
(dp4340
g9
I0
sg10
VC0339462
p4341
sg12
I21
sg13
VMacular retinoschisis
p4342
sg15
I2
sasa(dp4343
g2
S'Strabismus fixus is an entity.'
p4344
sg4
(lp4345
sg6
(lp4346
(dp4347
g9
I0
sg10
VC0339648
p4348
sg12
I16
sg13
VStrabismus fixus
p4349
sg15
I2
sasa(dp4350
g2
S'Index myopia is an entity. \n'
p4351
sg4
(lp4352
sg6
(lp4353
(dp4354
g9
I0
sg10
VC0339681
p4355
sg12
I12
sg13
VIndex myopia
p4356
sg15
I2
sasa(dp4357
g2
S'Asbestos pleurisy is an entity.'
p4358
sg4
(lp4359
sg6
(lp4360
(dp4361
g9
I0
sg10
VC0339997
p4362
sg12
I17
sg13
VAsbestos pleurisy
p4363
sg15
I2
sasa(dp4364
g2
S'Acute exacerbation of chronic obstructive airways disease is an entity.'
p4365
sg4
(lp4366
sg6
(lp4367
(dp4368
g9
I0
sg10
VC0340044
p4369
sg12
I57
sg13
VAcute exacerbation of chronic obstructive airways disease
p4370
sg15
I7
sasa(dp4371
g2
S'Familial dilated cardiomyopathy is an entity.'
p4372
sg4
(lp4373
sg6
(lp4374
(dp4375
g9
I0
sg10
VC0340427
p4376
sg12
I31
sg13
VFamilial dilated cardiomyopathy
p4377
sg15
I3
sasa(dp4378
g2
S'Familial sick sinus syndrome is an entity.'
p4379
sg4
(lp4380
sg6
(lp4381
(dp4382
g9
I0
sg10
VC0340491
p4383
sg12
I28
sg13
VFamilial sick sinus syndrome
p4384
sg15
I4
sasa(dp4385
g2
S'Eosinophilic esophagitis is an entity.'
p4386
sg4
(lp4387
sg6
(lp4388
(dp4389
g9
I0
sg10
VC0341106
p4390
sg12
I24
sg13
VEosinophilic esophagitis
p4391
sg15
I2
sasa(dp4392
g2
S'Obstructive chronic pancreatitis is an entity.'
p4393
sg4
(lp4394
sg6
(lp4395
(dp4396
g9
I0
sg10
VC0341472
p4397
sg12
I32
sg13
VObstructive chronic pancreatitis
p4398
sg15
I3
sasa(dp4399
g2
S'Bacterial peritonitis is an entity.'
p4400
sg4
(lp4401
sg6
(lp4402
(dp4403
g9
I0
sg10
VC0341503
p4404
sg12
I21
sg13
VBacterial peritonitis
p4405
sg15
I2
sasa(dp4406
g2
S'Endometriosis of uterus is an entity.'
p4407
sg4
(lp4408
sg6
(lp4409
(dp4410
g9
I0
sg10
VC0341858
p4411
sg12
I23
sg13
VEndometriosis of uterus
p4412
sg15
I3
sasa(dp4413
g2
S'Complications of Diabetes Mellitus is an entity.'
p4414
sg4
(lp4415
sg6
(lp4416
(dp4417
g9
I0
sg10
VC0342257
p4418
sg12
I34
sg13
VComplications of Diabetes Mellitus
p4419
sg15
I4
sasa(dp4420
g2
S'Diabetes mellitus autosomal dominant type II (disorder) is an entity. \n'
p4421
sg4
(lp4422
sg6
(lp4423
(dp4424
g9
I0
sg10
VC0342277
p4425
sg12
I44
sg13
VDiabetes mellitus autosomal dominant type II
p4426
sg15
I6
sasa(dp4427
g2
S'Hyperproinsulinemia is an entity.'
p4428
sg4
(lp4429
sg6
(lp4430
(dp4431
g9
I0
sg10
VC0342283
p4432
sg12
I19
sg13
VHyperproinsulinemia
p4433
sg15
I1
sasa(dp4434
g2
S'Insulin resistance - type A is an entity.'
p4435
sg4
(lp4436
(dp4437
g9
I0
sg585
VP01308
p4438
sg12
I7
sg13
VInsulin
p4439
sg15
I1
sasg6
(lp4440
(dp4441
g9
I0
sg10
VC0342336
p4442
sg12
I27
sg13
VInsulin resistance - type A
p4443
sg15
I5
sasa(dp4444
g2
S'Hypothalamic hamartomas is an entity.'
p4445
sg4
(lp4446
sg6
(lp4447
(dp4448
g9
I0
sg10
VC0342418
p4449
sg12
I23
sg13
VHypothalamic hamartomas
p4450
sg15
I2
sasa(dp4451
g2
S"ACTH-dependent Cushing's syndrome is an entity."
p4452
sg4
(lp4453
(dp4454
g9
I0
sg585
VP01189
p4455
sg12
I4
sg13
VACTH
p4456
sg15
I1
sasg6
(lp4457
(dp4458
g9
I0
sg10
VC0342442
p4459
sg12
I33
sg13
VACTH-dependent Cushing's syndrome
p4460
sg15
I3
sasa(dp4461
g2
S'Lipoid congenital adrenal hyperplasia is an entity.'
p4462
sg4
(lp4463
sg6
(lp4464
(dp4465
g9
I0
sg10
VC0342474
p4466
sg12
I37
sg13
VLipoid congenital adrenal hyperplasia
p4467
sg15
I4
sasa(dp4468
g2
S'Mineralocorticoid Excess Syndrome, Apparent is an entity.'
p4469
sg4
(lp4470
sg6
(lp4471
(dp4472
g9
I0
sg10
VC0342488
p4473
sg12
I43
sg13
VMineralocorticoid Excess Syndrome, Apparent
p4474
sg15
I4
sasa(dp4475
g2
S'Senile systemic amyloidosis is an entity.'
p4476
sg4
(lp4477
sg6
(lp4478
(dp4479
g9
I0
sg10
VC0342623
p4480
sg12
I27
sg13
VSenile systemic amyloidosis
p4481
sg15
I3
sasa(dp4482
g2
S'Familial idiopathic hypercalciuria is an entity.'
p4483
sg4
(lp4484
sg6
(lp4485
(dp4486
g9
I0
sg10
VC0342639
p4487
sg12
I34
sg13
VFamilial idiopathic hypercalciuria
p4488
sg15
I3
sasa(dp4489
g2
S'Autosomal recessive hypophosphatemic vitamin D refractory rickets is an entity.'
p4490
sg4
(lp4491
sg6
(lp4492
(dp4493
g9
I0
sg10
VC0342643
p4494
sg12
I65
sg13
VAutosomal recessive hypophosphatemic vitamin D refractory rickets
p4495
sg15
I7
sasa(dp4496
g2
S'Aromatic amino acid decarboxylase deficiency is an entity. \n'
p4497
sg4
(lp4498
(dp4499
g9
I0
sg585
VP20711
p4500
sg12
I33
sg13
VAromatic amino acid decarboxylase
p4501
sg15
I4
sasg6
(lp4502
(dp4503
g9
I0
sg10
VC0342686
p4504
sg12
I44
sg13
VAromatic amino acid decarboxylase deficiency
p4505
sg15
I5
sasa(dp4506
g2
S'Glycogen synthase deficiency is an entity.'
p4507
sg4
(lp4508
(dp4509
g9
I0
sg585
VP13807
p4510
sg12
I17
sg13
VGlycogen synthase
p4511
sg15
I2
sasg6
(lp4512
(dp4513
g9
I0
sg10
VC0342748
p4514
sg12
I28
sg13
VGlycogen synthase deficiency
p4515
sg15
I3
sasa(dp4516
g2
S'Glycogen storage disease type Id is an entity.'
p4517
sg4
(lp4518
sg6
(lp4519
(dp4520
g9
I0
sg10
VC0342750
p4521
sg12
I32
sg13
VGlycogen storage disease type Id
p4522
sg15
I5
sasa(dp4523
g2
S'Homozygous acute intermittent porphyria is an entity.'
p4524
sg4
(lp4525
sg6
(lp4526
(dp4527
g9
I0
sg10
VC0342858
p4528
sg12
I39
sg13
VHomozygous acute intermittent porphyria
p4529
sg15
I4
sasa(dp4530
g2
S'Harderoporphyria is an entity.'
p4531
sg4
(lp4532
sg6
(lp4533
(dp4534
g9
I0
sg10
VC0342859
p4535
sg12
I16
sg13
VHarderoporphyria
p4536
sg15
I1
sasa(dp4537
g2
S'Polygenic hypercholesterolemia is an entity.'
p4538
sg4
(lp4539
sg6
(lp4540
(dp4541
g9
I0
sg10
VC0342880
p4542
sg12
I30
sg13
VPolygenic hypercholesterolemia
p4543
sg15
I2
sasa(dp4544
g2
S'Secondary hypertriglyceridemia is an entity.'
p4545
sg4
(lp4546
sg6
(lp4547
(dp4548
g9
I0
sg10
VC0342889
p4549
sg12
I30
sg13
VSecondary hypertriglyceridemia
p4550
sg15
I2
sasa(dp4551
g2
S'Apolipoprotein A-I deficiency is an entity.'
p4552
sg4
(lp4553
(dp4554
g9
I0
sg585
VP02647
p4555
sg12
I18
sg13
VApolipoprotein A-I
p4556
sg15
I2
sasg6
(lp4557
(dp4558
g9
I0
sg10
VC0342898
p4559
sg12
I29
sg13
VApolipoprotein A-I deficiency
p4560
sg15
I3
sasa(dp4561
g2
S'Clostridium difficile infection is an entity.'
p4562
sg4
(lp4563
sg6
(lp4564
(dp4565
g9
I0
sg10
VC0343386
p4566
sg12
I31
sg13
VClostridium difficile infection
p4567
sg15
I3
sasa(dp4568
g2
S'Borderline lepromatous leprosy is an entity.'
p4569
sg4
(lp4570
sg6
(lp4571
(dp4572
g9
I0
sg10
VC0343458
p4573
sg12
I30
sg13
VBorderline lepromatous leprosy
p4574
sg15
I3
sasa(dp4575
g2
S'Asymptomatic human immunodeficiency virus infection is an entity. \n'
p4576
sg4
(lp4577
sg6
(lp4578
(dp4579
g9
I0
sg10
VC0343751
p4580
sg12
I51
sg13
VAsymptomatic human immunodeficiency virus infection
p4581
sg15
I5
sasa(dp4582
g2
S'HIV Wasting Syndrome is an entity.'
p4583
sg4
(lp4584
sg6
(lp4585
(dp4586
g9
I0
sg10
VC0343755
p4587
sg12
I20
sg13
VHIV Wasting Syndrome
p4588
sg15
I3
sasa(dp4589
g2
S"Chronic Chagas' disease is an entity."
p4590
sg4
(lp4591
sg6
(lp4592
(dp4593
g9
I0
sg10
VC0343804
p4594
sg12
I23
sg13
VChronic Chagas' disease
p4595
sg15
I3
sasa(dp4596
g2
S'Vitreoretinal degeneration is an entity.'
p4597
sg4
(lp4598
sg6
(lp4599
(dp4600
g9
I0
sg10
VC0344290
p4601
sg12
I26
sg13
VVitreoretinal degeneration
p4602
sg15
I2
sasa(dp4603
g2
S'Ventricular tachycardia, polymorphic is an entity.'
p4604
sg4
(lp4605
sg6
(lp4606
(dp4607
g9
I0
sg10
VC0344432
p4608
sg12
I36
sg13
VVentricular tachycardia, polymorphic
p4609
sg15
I3
sasa(dp4610
g2
S'Coloboma of lens is an entity.'
p4611
sg4
(lp4612
sg6
(lp4613
(dp4614
g9
I0
sg10
VC0344516
p4615
sg12
I16
sg13
VColoboma of lens
p4616
sg15
I3
sasa(dp4617
g2
S'Aniridia type 1 is an entity.'
p4618
sg4
(lp4619
sg6
(lp4620
(dp4621
g9
I0
sg10
VC0344542
p4622
sg12
I15
sg13
VAniridia type 1
p4623
sg15
I3
sasa(dp4624
g2
S"Short segment Hirschsprung's disease is an entity."
p4625
sg4
(lp4626
sg6
(lp4627
(dp4628
g9
I0
sg10
VC0345237
p4629
sg12
I36
sg13
VShort segment Hirschsprung's disease
p4630
sg15
I4
sasa(dp4631
g2
S'Sarcoma of liver is an entity.'
p4632
sg4
(lp4633
sg6
(lp4634
(dp4635
g9
I0
sg10
VC0345906
p4636
sg12
I16
sg13
VSarcoma of liver
p4637
sg15
I3
sasa(dp4638
g2
S'Multiple fibrofolliculomas is an entity.'
p4639
sg4
(lp4640
sg6
(lp4641
(dp4642
g9
I0
sg10
VC0346010
p4643
sg12
I26
sg13
VMultiple fibrofolliculomas
p4644
sg15
I2
sasa(dp4645
g2
S'Syringocystadenoma is an entity. \n'
p4646
sg4
(lp4647
sg6
(lp4648
(dp4649
g9
I0
sg10
VC0346023
p4650
sg12
I18
sg13
VSyringocystadenoma
p4651
sg15
I1
sasa(dp4652
g2
S'Nevus spilus is an entity.'
p4653
sg4
(lp4654
sg6
(lp4655
(dp4656
g9
I0
sg10
VC0346099
p4657
sg12
I12
sg13
VNevus spilus
p4658
sg15
I2
sasa(dp4659
g2
S'Breast Cancer, Familial is an entity.'
p4660
sg4
(lp4661
sg6
(lp4662
(dp4663
g9
I0
sg10
VC0346153
p4664
sg12
I23
sg13
VBreast Cancer, Familial
p4665
sg15
I3
sasa(dp4666
g2
S'Dysgerminoma of ovary is an entity.'
p4667
sg4
(lp4668
sg6
(lp4669
(dp4670
g9
I0
sg10
VC0346185
p4671
sg12
I21
sg13
VDysgerminoma of ovary
p4672
sg15
I3
sasa(dp4673
g2
S'Malignant melanoma of iris is an entity.'
p4674
sg4
(lp4675
sg6
(lp4676
(dp4677
g9
I0
sg10
VC0346373
p4678
sg12
I26
sg13
VMalignant melanoma of iris
p4679
sg15
I4
sasa(dp4680
g2
S'Malignant tumor of exocrine pancreas is an entity.'
p4681
sg4
(lp4682
sg6
(lp4683
(dp4684
g9
I0
sg10
VC0346648
p4685
sg12
I36
sg13
VMalignant tumor of exocrine pancreas
p4686
sg15
I5
sasa(dp4687
g2
S'Benign neoplasm of intestinal tract is an entity.'
p4688
sg4
(lp4689
sg6
(lp4690
(dp4691
g9
I0
sg10
VC0347269
p4692
sg12
I35
sg13
VBenign neoplasm of intestinal tract
p4693
sg15
I5
sasa(dp4694
g2
S'Malignant neoplasm of central nervous system is an entity.'
p4695
sg4
(lp4696
sg6
(lp4697
(dp4698
g9
I0
sg10
VC0348374
p4699
sg12
I44
sg13
VMalignant neoplasm of central nervous system
p4700
sg15
I6
sasa(dp4701
g2
S'Imbalance of constituents of food intake is an entity.'
p4702
sg4
(lp4703
sg6
(lp4704
(dp4705
g9
I0
sg10
VC0348951
p4706
sg12
I40
sg13
VImbalance of constituents of food intake
p4707
sg15
I6
sasa(dp4708
g2
S'Manic episode, unspecified is an entity.'
p4709
sg4
(lp4710
sg6
(lp4711
(dp4712
g9
I0
sg10
VC0349208
p4713
sg12
I26
sg13
VManic episode, unspecified
p4714
sg15
I3
sasa(dp4715
g2
S'Recurrent depressive disorder, unspecified is an entity. \n'
p4716
sg4
(lp4717
sg6
(lp4718
(dp4719
g9
I0
sg10
VC0349218
p4720
sg12
I29
sg13
VRecurrent depressive disorder
p4721
sg15
I3
sasa(dp4722
g2
S'Non-fluent aphasia is an entity.'
p4723
sg4
(lp4724
sg6
(lp4725
(dp4726
g9
I0
sg10
VC0349390
p4727
sg12
I18
sg13
VNon-fluent aphasia
p4728
sg15
I2
sasa(dp4729
g2
S'Mass of thyroid gland is an entity.'
p4730
sg4
(lp4731
sg6
(lp4732
(dp4733
g9
I0
sg10
VC0349453
p4734
sg12
I21
sg13
VMass of thyroid gland
p4735
sg15
I4
sasa(dp4736
g2
S'Pilocytic astrocytoma of cerebellum is an entity.'
p4737
sg4
(lp4738
sg6
(lp4739
(dp4740
g9
I0
sg10
VC0349620
p4741
sg12
I35
sg13
VPilocytic astrocytoma of cerebellum
p4742
sg15
I4
sasa(dp4743
g2
S'Pre B-cell acute lymphoblastic leukemia is an entity.'
p4744
sg4
(lp4745
sg6
(lp4746
(dp4747
g9
I0
sg10
VC0349636
p4748
sg12
I39
sg13
VPre B-cell acute lymphoblastic leukemia
p4749
sg15
I5
sasa(dp4750
g2
S'Ischemic cardiomyopathy is an entity.'
p4751
sg4
(lp4752
sg6
(lp4753
(dp4754
g9
I0
sg10
VC0349782
p4755
sg12
I23
sg13
VIschemic cardiomyopathy
p4756
sg15
I2
sasa(dp4757
g2
S'Progesterone measurement is an entity.'
p4758
sg4
(lp4759
sg6
(lp4760
sa(dp4761
g2
S'Respiratory syncytial virus (RSV) infection in conditions classified elsewhere and of unspecified site is an entity.'
p4762
sg4
(lp4763
sg6
(lp4764
(dp4765
g9
I0
sg10
VC0375023
p4766
sg12
I102
sg13
VRespiratory syncytial virus (RSV) infection in conditions classified elsewhere and of unspecified site
p4767
sg15
I13
sasa(dp4768
g2
S'Severe combined immunodeficiency due to adenosine deaminase deficiency is an entity.'
p4769
sg4
(lp4770
(dp4771
g9
I40
sg585
VP00813
p4772
sg12
I19
sg13
Vadenosine deaminase
p4773
sg15
I2
sasg6
(lp4774
(dp4775
g9
I0
sg10
VC0392607
p4776
sg12
I70
sg13
VSevere combined immunodeficiency due to adenosine deaminase deficiency
p4777
sg15
I8
sasa(dp4778
g2
S'Carcinosarcoma of ovary is an entity.'
p4779
sg4
(lp4780
sg6
(lp4781
(dp4782
g9
I0
sg10
VC0392998
p4783
sg12
I23
sg13
VCarcinosarcoma of ovary
p4784
sg15
I3
sasa(dp4785
g2
S'Progressive cerebellar ataxia is an entity. \n'
p4786
sg4
(lp4787
sg6
(lp4788
(dp4789
g9
I0
sg10
VC0393525
p4790
sg12
I29
sg13
VProgressive cerebellar ataxia
p4791
sg15
I3
sasa(dp4792
g2
S'Bulbospinal Neuronopathy is an entity.'
p4793
sg4
(lp4794
sg6
(lp4795
(dp4796
g9
I0
sg10
VC0393547
p4797
sg12
I24
sg13
VBulbospinal Neuronopathy
p4798
sg15
I2
sasa(dp4799
g2
S'Dystonia, Paroxysmal is an entity.'
p4800
sg4
(lp4801
sg6
(lp4802
(dp4803
g9
I0
sg10
VC0393588
p4804
sg12
I20
sg13
VDystonia, Paroxysmal
p4805
sg15
I2
sasa(dp4806
g2
S'Dystonia, Diurnal is an entity.'
p4807
sg4
(lp4808
sg6
(lp4809
(dp4810
g9
I0
sg10
VC0393610
p4811
sg12
I17
sg13
VDystonia, Diurnal
p4812
sg15
I2
sasa(dp4813
g2
S'Epilepsy with grand mal seizures on awakening (disorder) is an entity.'
p4814
sg4
(lp4815
sg6
(lp4816
(dp4817
g9
I0
sg10
VC0393697
p4818
sg12
I45
sg13
VEpilepsy with grand mal seizures on awakening
p4819
sg15
I7
sasa(dp4820
g2
S'Charcot-Marie-Tooth disease, X-linked, 1 is an entity.'
p4821
sg4
(lp4822
sg6
(lp4823
(dp4824
g9
I0
sg10
VC0393808
p4825
sg12
I40
sg13
VCharcot-Marie-Tooth disease, X-linked, 1
p4826
sg15
I4
sasa(dp4827
g2
S'Ataxic cerebral palsy is an entity.'
p4828
sg4
(lp4829
sg6
(lp4830
(dp4831
g9
I0
sg10
VC0394005
p4832
sg12
I21
sg13
VAtaxic cerebral palsy
p4833
sg15
I3
sasa(dp4834
g2
S'Acute alcoholic intoxication is an entity.'
p4835
sg4
(lp4836
sg6
(lp4837
(dp4838
g9
I0
sg10
VC0394996
p4839
sg12
I28
sg13
VAcute alcoholic intoxication
p4840
sg15
I3
sasa(dp4841
g2
S'Dominant sensorineural hearing loss is an entity.'
p4842
sg4
(lp4843
sg6
(lp4844
(dp4845
g9
I0
sg10
VC0395971
p4846
sg12
I35
sg13
VDominant sensorineural hearing loss
p4847
sg15
I4
sasa(dp4848
g2
S'Heparin cofactor II deficiency (disorder) is an entity.'
p4849
sg4
(lp4850
(dp4851
g9
I0
sg585
VP05546
p4852
sg12
I19
sg13
VHeparin cofactor II
p4853
sg15
I3
sasg6
(lp4854
(dp4855
g9
I0
sg10
VC0398626
p4856
sg12
I30
sg13
VHeparin cofactor II deficiency
p4857
sg15
I4
sasa(dp4858
g2
S'Posttransfusion purpura is an entity. \n'
p4859
sg4
(lp4860
sg6
(lp4861
(dp4862
g9
I0
sg10
VC0398648
p4863
sg12
I23
sg13
VPosttransfusion purpura
p4864
sg15
I2
sasa(dp4865
g2
S'Sarcoid myopathy is an entity.'
p4866
sg4
(lp4867
sg6
(lp4868
(dp4869
g9
I0
sg10
VC0398680
p4870
sg12
I16
sg13
VSarcoid myopathy
p4871
sg15
I2
sasa(dp4872
g2
S'Immunoglobulin G4 deficiency is an entity.'
p4873
sg4
(lp4874
(dp4875
g9
I0
sg585
g586
sg12
I14
sg13
VImmunoglobulin
p4876
sg15
I1
sasg6
(lp4877
(dp4878
g9
I0
sg10
VC0398704
p4879
sg12
I28
sg13
VImmunoglobulin G4 deficiency
p4880
sg15
I3
sasa(dp4881
g2
S'Hereditary C1 esterase inhibitor deficiency - dysfunctional factor is an entity.'
p4882
sg4
(lp4883
(dp4884
g9
I11
sg585
VP22760
p4885
sg12
I11
sg13
VC1 esterase
p4886
sg15
I2
sasg6
(lp4887
(dp4888
g9
I0
sg10
VC0398776
p4889
sg12
I66
sg13
VHereditary C1 esterase inhibitor deficiency - dysfunctional factor
p4890
sg15
I8
sasa(dp4891
g2
S'Immunodeficiency syndrome, variable is an entity.'
p4892
sg4
(lp4893
sg6
(lp4894
(dp4895
g9
I0
sg10
VC0398788
p4896
sg12
I35
sg13
VImmunodeficiency syndrome, variable
p4897
sg15
I3
sasa(dp4898
g2
S'Amelogenesis imperfecta, hypomaturation hypoplasia type with taurodontism is an entity.'
p4899
sg4
(lp4900
sg6
(lp4901
(dp4902
g9
I0
sg10
VC0399373
p4903
sg12
I73
sg13
VAmelogenesis imperfecta, hypomaturation hypoplasia type with taurodontism
p4904
sg15
I7
sasa(dp4905
g2
S'Early tooth exfoliation is an entity.'
p4906
sg4
(lp4907
sg6
(lp4908
(dp4909
g9
I0
sg10
VC0399385
p4910
sg12
I23
sg13
VEarly tooth exfoliation
p4911
sg15
I3
sasa(dp4912
g2
S'Class III malocclusion is an entity.'
p4913
sg4
(lp4914
sg6
(lp4915
(dp4916
g9
I0
sg10
VC0399526
p4917
sg12
I22
sg13
VClass III malocclusion
p4918
sg15
I3
sasa(dp4919
g2
S'proliferative nephritis unspecified is an entity.'
p4920
sg4
(lp4921
sg6
(lp4922
(dp4923
g9
I0
sg10
VC0403367
p4924
sg12
I35
sg13
Vproliferative nephritis unspecified
p4925
sg15
I3
sasa(dp4926
g2
S'Renal ocular syndrome is an entity.'
p4927
sg4
(lp4928
sg6
(lp4929
(dp4930
g9
I0
sg10
VC0403483
p4931
sg12
I21
sg13
VRenal ocular syndrome
p4932
sg15
I3
sasa(dp4933
g2
S'Microalbuminuric diabetic nephropathy is an entity. \n'
p4934
sg4
(lp4935
sg6
(lp4936
(dp4937
g9
I0
sg10
VC0403518
p4938
sg12
I37
sg13
VMicroalbuminuric diabetic nephropathy
p4939
sg15
I3
sasa(dp4940
g2
S'Primary spermatogenic failure is an entity.'
p4941
sg4
(lp4942
sg6
(lp4943
(dp4944
g9
I0
sg10
VC0403809
p4945
sg12
I29
sg13
VPrimary spermatogenic failure
p4946
sg15
I3
sasa(dp4947
g2
S'Teratozoospermia is an entity.'
p4948
sg4
(lp4949
sg6
(lp4950
sa(dp4951
g2
S'Actinic prurigo is an entity.'
p4952
sg4
(lp4953
sg6
(lp4954
(dp4955
g9
I0
sg10
VC0406217
p4956
sg12
I15
sg13
VActinic prurigo
p4957
sg15
I2
sasa(dp4958
g2
S'Chronic small plaque psoriasis is an entity.'
p4959
sg4
(lp4960
sg6
(lp4961
(dp4962
g9
I0
sg10
VC0406317
p4963
sg12
I30
sg13
VChronic small plaque psoriasis
p4964
sg15
I4
sasa(dp4965
g2
S'Lethal tight skin contracture syndrome (disorder) is an entity.'
p4966
sg4
(lp4967
sg6
(lp4968
(dp4969
g9
I0
sg10
VC0406585
p4970
sg12
I38
sg13
VLethal tight skin contracture syndrome
p4971
sg15
I5
sasa(dp4972
g2
S'Encephalocraniocutaneous lipomatosis is an entity.'
p4973
sg4
(lp4974
sg6
(lp4975
(dp4976
g9
I0
sg10
VC0406612
p4977
sg12
I36
sg13
VEncephalocraniocutaneous lipomatosis
p4978
sg15
I2
sasa(dp4979
g2
S'Hay-Wells syndrome is an entity.'
p4980
sg4
(lp4981
sg6
(lp4982
(dp4983
g9
I0
sg10
VC0406709
p4984
sg12
I18
sg13
VHay-Wells syndrome
p4985
sg15
I2
sasa(dp4986
g2
S'Osteoarthritis of distal interphalangeal joint is an entity.'
p4987
sg4
(lp4988
sg6
(lp4989
(dp4990
g9
I0
sg10
VC0409957
p4991
sg12
I46
sg13
VOsteoarthritis of distal interphalangeal joint
p4992
sg15
I5
sasa(dp4993
g2
S'Eichsfeld type congenital muscular dystrophy is an entity.'
p4994
sg4
(lp4995
sg6
(lp4996
(dp4997
g9
I0
sg10
VC0410180
p4998
sg12
I44
sg13
VEichsfeld type congenital muscular dystrophy
p4999
sg15
I5
sasa(dp5000
g2
S'Proximal myopathy is an entity. \n'
p5001
sg4
(lp5002
sg6
(lp5003
(dp5004
g9
I0
sg10
VC0410198
p5005
sg12
I17
sg13
VProximal myopathy
p5006
sg15
I2
sasa(dp5007
g2
S'Craniodiaphyseal dysplasia is an entity.'
p5008
sg4
(lp5009
sg6
(lp5010
(dp5011
g9
I0
sg10
VC0410539
p5012
sg12
I26
sg13
VCraniodiaphyseal dysplasia
p5013
sg15
I2
sasa(dp5014
g2
S'Wide cranial sutures is an entity.'
p5015
sg4
(lp5016
sg6
(lp5017
sa(dp5018
g2
S'CNS symptom is an entity.'
p5019
sg4
(lp5020
sg6
(lp5021
(dp5022
g9
I0
sg10
VC0422879
p5023
sg12
I11
sg13
VCNS symptom
p5024
sg15
I2
sasa(dp5025
g2
S'Downward slant of palpebral fissure is an entity.'
p5026
sg4
(lp5027
sg6
(lp5028
sa(dp5029
g2
S'After pains is an entity.'
p5030
sg4
(lp5031
sg6
(lp5032
(dp5033
g9
I0
sg10
VC0423732
p5034
sg12
I11
sg13
VAfter pains
p5035
sg15
I2
sasa(dp5036
g2
S'Overcurvature of nail is an entity.'
p5037
sg4
(lp5038
sg6
(lp5039
sa(dp5040
g2
S'Brachyonychia is an entity.'
p5041
sg4
(lp5042
sg6
(lp5043
sa(dp5044
g2
S'Thin nails is an entity.'
p5045
sg4
(lp5046
sg6
(lp5047
(dp5048
g9
I0
sg10
VC0423823
p5049
sg12
I10
sg13
VThin nails
p5050
sg15
I2
sasa(dp5051
g2
S'Physical aggression is an entity.'
p5052
sg4
(lp5053
sg6
(lp5054
(dp5055
g9
I9
sg10
VC0001807
p5056
sg12
I10
sg13
Vaggression
p5057
sg15
I1
sasa(dp5058
g2
S'Small head is an entity. \n'
p5059
sg4
(lp5060
sg6
(lp5061
sa(dp5062
g2
S'Premature development of the breasts is an entity.'
p5063
sg4
(lp5064
sg6
(lp5065
sa(dp5066
g2
S'Narrow nose is an entity.'
p5067
sg4
(lp5068
sg6
(lp5069
sa(dp5070
g2
S'Large prostate is an entity.'
p5071
sg4
(lp5072
sg6
(lp5073
sa(dp5074
g2
S'Spastic Quadriplegia is an entity.'
p5075
sg4
(lp5076
sg6
(lp5077
(dp5078
g9
I0
sg10
VC0426970
p5079
sg12
I20
sg13
VSpastic Quadriplegia
p5080
sg15
I2
sasa(dp5081
g2
S'Neutrophil abnormality is an entity.'
p5082
sg4
(lp5083
sg6
(lp5084
sa(dp5085
g2
S'Gillespie syndrome is an entity.'
p5086
sg4
(lp5087
sg6
(lp5088
(dp5089
g9
I0
sg10
VC0431401
p5090
sg12
I18
sg13
VGillespie syndrome
p5091
sg15
I2
sasa(dp5092
g2
S'Lobulated tongue is an entity.'
p5093
sg4
(lp5094
sg6
(lp5095
(dp5096
g9
I0
sg10
VC0431564
p5097
sg12
I16
sg13
VLobulated tongue
p5098
sg15
I2
sasa(dp5099
g2
S'Ectopic liver is an entity.'
p5100
sg4
(lp5101
sg6
(lp5102
(dp5103
g9
I0
sg10
VC0431603
p5104
sg12
I13
sg13
VEctopic liver
p5105
sg15
I2
sasa(dp5106
g2
S'Unilateral Cryptorchidism is an entity.'
p5107
sg4
(lp5108
sg6
(lp5109
(dp5110
g9
I0
sg10
VC0431664
p5111
sg12
I25
sg13
VUnilateral Cryptorchidism
p5112
sg15
I2
sasa(dp5113
g2
S'Thumb in palm deformity is an entity. \n'
p5114
sg4
(lp5115
sg6
(lp5116
(dp5117
g9
I0
sg10
VC0431886
p5118
sg12
I23
sg13
VThumb in palm deformity
p5119
sg15
I4
sasa(dp5120
g2
S'Simple syndactyly of fingers - first web is an entity.'
p5121
sg4
(lp5122
sg6
(lp5123
(dp5124
g9
I0
sg10
VC0432055
p5125
sg12
I40
sg13
VSimple syndactyly of fingers - first web
p5126
sg15
I7
sasa(dp5127
g2
S'Cleft of hard palate is an entity.'
p5128
sg4
(lp5129
sg6
(lp5130
(dp5131
g9
I0
sg10
VC0432090
p5132
sg12
I20
sg13
VCleft of hard palate
p5133
sg15
I4
sasa(dp5134
g2
S'Defect of vertebral segmentation is an entity.'
p5135
sg4
(lp5136
sg6
(lp5137
(dp5138
g9
I0
sg10
VC0432163
p5139
sg12
I32
sg13
VDefect of vertebral segmentation
p5140
sg15
I4
sasa(dp5141
g2
S'Short rib-polydactyly syndrome, Verma-Naumoff type is an entity.'
p5142
sg4
(lp5143
sg6
(lp5144
(dp5145
g9
I0
sg10
VC0432197
p5146
sg12
I50
sg13
VShort rib-polydactyly syndrome, Verma-Naumoff type
p5147
sg15
I5
sasa(dp5148
g2
S'Progressive pseudorheumatoid dysplasia is an entity.'
p5149
sg4
(lp5150
sg6
(lp5151
(dp5152
g9
I0
sg10
VC0432215
p5153
sg12
I38
sg13
VProgressive pseudorheumatoid dysplasia
p5154
sg15
I3
sasa(dp5155
g2
S'Microcephalic Osteodysplastic Primordial Dwarfism, Type II is an entity.'
p5156
sg4
(lp5157
sg6
(lp5158
(dp5159
g9
I0
sg10
VC1859451
p5160
sg12
I58
sg13
VMicrocephalic Osteodysplastic Primordial Dwarfism, Type II
p5161
sg15
I6
sasa(dp5162
g2
S'Singleton Merten syndrome is an entity.'
p5163
sg4
(lp5164
sg6
(lp5165
(dp5166
g9
I0
sg10
VC0432254
p5167
sg12
I25
sg13
VSingleton Merten syndrome
p5168
sg15
I3
sasa(dp5169
g2
S'Mandibuloacral dysostosis is an entity.'
p5170
sg4
(lp5171
sg6
(lp5172
(dp5173
g9
I0
sg10
VC0432291
p5174
sg12
I25
sg13
VMandibuloacral dysostosis
p5175
sg15
I2
sasa(dp5176
g2
S'Junctional epidermolysis bullosa mitis is an entity.'
p5177
sg4
(lp5178
sg6
(lp5179
(dp5180
g9
I0
sg10
VC0432326
p5181
sg12
I38
sg13
VJunctional epidermolysis bullosa mitis
p5182
sg15
I4
sasa(dp5183
g2
S'Chromosome 9, trisomy is an entity. \n'
p5184
sg4
(lp5185
sg6
(lp5186
(dp5187
g9
I0
sg10
VC0432411
p5188
sg12
I21
sg13
VChromosome 9, trisomy
p5189
sg15
I3
sasa(dp5190
g2
S'Liver enzymes abnormal is an entity.'
p5191
sg4
(lp5192
sg6
(lp5193
sa(dp5194
g2
S'Fatigue - symptom is an entity.'
p5195
sg4
(lp5196
sg6
(lp5197
(dp5198
g9
I0
sg10
VC0439053
p5199
sg12
I17
sg13
VFatigue - symptom
p5200
sg15
I3
sasa(dp5201
g2
S'Neuropathy is an entity.'
p5202
sg4
(lp5203
sg6
(lp5204
(dp5205
g9
I0
sg10
VC0442874
p5206
sg12
I10
sg13
VNeuropathy
p5207
sg15
I1
sasa(dp5208
g2
S'Periungual fibroma is an entity.'
p5209
sg4
(lp5210
sg6
(lp5211
(dp5212
g9
I0
sg10
VC0442880
p5213
sg12
I18
sg13
VPeriungual fibroma
p5214
sg15
I2
sasa(dp5215
g2
S'Dysarthria, Spastic is an entity.'
p5216
sg4
(lp5217
sg6
(lp5218
(dp5219
g9
I0
sg10
VC0454596
p5220
sg12
I19
sg13
VDysarthria, Spastic
p5221
sg15
I2
sasa(dp5222
g2
S'H/O: depression is an entity.'
p5223
sg4
(lp5224
sg6
(lp5225
(dp5226
g9
I5
sg10
VC0011581
p5227
sg12
I10
sg13
Vdepression
p5228
sg15
I1
sasa(dp5229
g2
S'High grade T-cell lymphoma is an entity.'
p5230
sg4
(lp5231
sg6
(lp5232
(dp5233
g9
I0
sg10
VC0456877
p5234
sg12
I26
sg13
VHigh grade T-cell lymphoma
p5235
sg15
I4
sasa(dp5236
g2
S'Complex Regional Pain Syndromes is an entity.'
p5237
sg4
(lp5238
sg6
(lp5239
(dp5240
g9
I0
sg10
VC0458219
p5241
sg12
I31
sg13
VComplex Regional Pain Syndromes
p5242
sg15
I4
sasa(dp5243
g2
S'Hereditary factor VIII deficiency disease with inhibitor is an entity.'
p5244
sg4
(lp5245
(dp5246
g9
I11
sg585
VP00451
p5247
sg12
I11
sg13
Vfactor VIII
p5248
sg15
I2
sasg6
(lp5249
(dp5250
g9
I0
sg10
VC0472802
p5251
sg12
I56
sg13
VHereditary factor VIII deficiency disease with inhibitor
p5252
sg15
I7
sasa(dp5253
g2
S'X-linked agammaglobulinemia with growth hormone deficiency is an entity. \n'
p5254
sg4
(lp5255
(dp5256
g9
I33
sg585
VP01242
p5257
sg12
I14
sg13
Vgrowth hormone
p5258
sg15
I2
sa(dp5259
g9
I0
sg585
g586
sg12
I27
sg13
VX-linked agammaglobulinemia
p5260
sg15
I2
sasg6
(lp5261
(dp5262
g9
I0
sg10
VC0472813
p5263
sg12
I58
sg13
VX-linked agammaglobulinemia with growth hormone deficiency
p5264
sg15
I6
sasa(dp5265
g2
S'Fecal peritonitis is an entity.'
p5266
sg4
(lp5267
sg6
(lp5268
(dp5269
g9
I0
sg10
VC0473119
p5270
sg12
I17
sg13
VFecal peritonitis
p5271
sg15
I2
sasa(dp5272
g2
S'Inappropriate sexual behavior is an entity.'
p5273
sg4
(lp5274
sg6
(lp5275
sa(dp5276
g2
S'Benign pheochromocytoma is an entity.'
p5277
sg4
(lp5278
sg6
(lp5279
(dp5280
g9
I0
sg10
VC0474822
p5281
sg12
I23
sg13
VBenign pheochromocytoma
p5282
sg15
I2
sasa(dp5283
g2
S'Localized recessive dystrophic epidermolysis bullosa is an entity.'
p5284
sg4
(lp5285
sg6
(lp5286
(dp5287
g9
I0
sg10
VC0474886
p5288
sg12
I52
sg13
VLocalized recessive dystrophic epidermolysis bullosa
p5289
sg15
I5
sasa(dp5290
g2
S'Secondary malignant neoplasm of liver is an entity.'
p5291
sg4
(lp5292
sg6
(lp5293
(dp5294
g9
I0
sg10
VC0494165
p5295
sg12
I37
sg13
VSecondary malignant neoplasm of liver
p5296
sg15
I5
sasa(dp5297
g2
S'Physical function is an entity.'
p5298
sg4
(lp5299
sg6
(lp5300
sa(dp5301
g2
S'Hemoglobin measurement is an entity.'
p5302
sg4
(lp5303
(dp5304
g9
I0
sg585
g586
sg12
I10
sg13
VHemoglobin
p5305
sg15
I1
sasg6
(lp5306
sa(dp5307
g2
S'Fibrosis of bile duct is an entity.'
p5308
sg4
(lp5309
sg6
(lp5310
(dp5311
g9
I0
sg10
VC0520571
p5312
sg12
I21
sg13
VFibrosis of bile duct
p5313
sg15
I4
sasa(dp5314
g2
S'Sleep Apnea, Obstructive is an entity.'
p5315
sg4
(lp5316
sg6
(lp5317
(dp5318
g9
I0
sg10
VC0520679
p5319
sg12
I24
sg13
VSleep Apnea, Obstructive
p5320
sg15
I3
sasa(dp5321
g2
S'Gastrointestinal mucositis is an entity. \n'
p5322
sg4
(lp5323
sg6
(lp5324
(dp5325
g9
I0
sg10
VC0521585
p5326
sg12
I26
sg13
VGastrointestinal mucositis
p5327
sg15
I2
sasa(dp5328
g2
S'Peritoneal Fibrosis is an entity.'
p5329
sg4
(lp5330
sg6
(lp5331
(dp5332
g9
I0
sg10
VC0521607
p5333
sg12
I19
sg13
VPeritoneal Fibrosis
p5334
sg15
I2
sasa(dp5335
g2
S'Gallstone pancreatitis is an entity.'
p5336
sg4
(lp5337
sg6
(lp5338
(dp5339
g9
I0
sg10
VC0521614
p5340
sg12
I22
sg13
VGallstone pancreatitis
p5341
sg15
I2
sasa(dp5342
g2
S'Chorioretinal degeneration is an entity.'
p5343
sg4
(lp5344
sg6
(lp5345
(dp5346
g9
I0
sg10
VC0521683
p5347
sg12
I26
sg13
VChorioretinal degeneration
p5348
sg15
I2
sasa(dp5349
g2
S'Glaucomatous retinal degeneration is an entity.'
p5350
sg4
(lp5351
sg6
(lp5352
(dp5353
g9
I0
sg10
VC0521686
p5354
sg12
I33
sg13
VGlaucomatous retinal degeneration
p5355
sg15
I3
sasa(dp5356
g2
S'Lower eyelid ectropion is an entity.'
p5357
sg4
(lp5358
sg6
(lp5359
(dp5360
g9
I0
sg10
VC0521736
p5361
sg12
I22
sg13
VLower eyelid ectropion
p5362
sg15
I3
sasa(dp5363
g2
S'Asteroid hyalosis is an entity.'
p5364
sg4
(lp5365
sg6
(lp5366
(dp5367
g9
I0
sg10
VC0521770
p5368
sg12
I17
sg13
VAsteroid hyalosis
p5369
sg15
I2
sasa(dp5370
g2
S'Hearing Loss, Unilateral is an entity.'
p5371
sg4
(lp5372
sg6
(lp5373
(dp5374
g9
I0
sg10
VC0521785
p5375
sg12
I24
sg13
VHearing Loss, Unilateral
p5376
sg15
I3
sasa(dp5377
g2
S'Sexual inhibition is an entity.'
p5378
sg4
(lp5379
sg6
(lp5380
(dp5381
g9
I0
sg10
VC0522205
p5382
sg12
I17
sg13
VSexual inhibition
p5383
sg15
I2
sasa(dp5384
g2
S'Testosterone measurement is an entity.'
p5385
sg4
(lp5386
sg6
(lp5387
sa(dp5388
g2
S'Opiate Addiction is an entity. \n'
p5389
sg4
(lp5390
sg6
(lp5391
(dp5392
g9
I0
sg10
VC0524662
p5393
sg12
I16
sg13
VOpiate Addiction
p5394
sg15
I2
sasa(dp5395
g2
S'Pneumonic Plague is an entity.'
p5396
sg4
(lp5397
sg6
(lp5398
(dp5399
g9
I0
sg10
VC0524688
p5400
sg12
I16
sg13
VPneumonic Plague
p5401
sg15
I2
sasa(dp5402
g2
S'Mood Disorders is an entity.'
p5403
sg4
(lp5404
sg6
(lp5405
(dp5406
g9
I0
sg10
VC0525045
p5407
sg12
I14
sg13
VMood Disorders
p5408
sg15
I2
sasa(dp5409
g2
S'Hypotriglyceridaemia is an entity.'
p5410
sg4
(lp5411
sg6
(lp5412
(dp5413
g9
I0
sg10
VC0542037
p5414
sg12
I20
sg13
VHypotriglyceridaemia
p5415
sg15
I1
sasa(dp5416
g2
S'Enlarged kidney is an entity.'
p5417
sg4
(lp5418
sg6
(lp5419
sa(dp5420
g2
S'Sucrase deficiency is an entity.'
p5421
sg4
(lp5422
(dp5423
g9
I0
sg585
VP14410
p5424
sg12
I7
sg13
VSucrase
p5425
sg15
I1
sasg6
(lp5426
(dp5427
g9
I0
sg10
VC0543515
p5428
sg12
I18
sg13
VSucrase deficiency
p5429
sg15
I2
sasa(dp5430
g2
S'Klinefelter Syndrome, Variants is an entity.'
p5431
sg4
(lp5432
sg6
(lp5433
(dp5434
g9
I0
sg10
VC0543754
p5435
sg12
I30
sg13
VKlinefelter Syndrome, Variants
p5436
sg15
I3
sasa(dp5437
g2
S'SCHIZOPHRENIA 10 is an entity.'
p5438
sg4
(lp5439
(dp5440
g9
I0
sg585
VP35462
p5441
sg12
I13
sg13
VSCHIZOPHRENIA
p5442
sg15
I1
sasg6
(lp5443
(dp5444
g9
I0
sg10
VC0036341
p5445
sg12
I13
sg13
VSCHIZOPHRENIA
p5446
sg15
I1
sasa(dp5447
g2
S'Genu varum is an entity.'
p5448
sg4
(lp5449
sg6
(lp5450
(dp5451
g9
I0
sg10
VC0544755
p5452
sg12
I10
sg13
VGenu varum
p5453
sg15
I2
sasa(dp5454
g2
S'Nodular amyloidosis is an entity.'
p5455
sg4
(lp5456
sg6
(lp5457
(dp5458
g9
I0
sg10
VC0544840
p5459
sg12
I19
sg13
VNodular amyloidosis
p5460
sg15
I2
sasa(dp5461
g2
S'mantle lymphoma is an entity. \n'
p5462
sg4
(lp5463
sg6
(lp5464
(dp5465
g9
I0
sg10
VC0545081
p5466
sg12
I15
sg13
Vmantle lymphoma
p5467
sg15
I2
sasa(dp5468
g2
S'Obstructive Hydrocephalus is an entity.'
p5469
sg4
(lp5470
sg6
(lp5471
(dp5472
g9
I0
sg10
VC0549423
p5473
sg12
I25
sg13
VObstructive Hydrocephalus
p5474
sg15
I2
sasa(dp5475
g2
S'System disorder of the nervous system is an entity.'
p5476
sg4
(lp5477
sg6
(lp5478
(dp5479
g9
I0
sg10
VC0549469
p5480
sg12
I37
sg13
VSystem disorder of the nervous system
p5481
sg15
I6
sasa(dp5482
g2
S'Round cell sarcoma is an entity.'
p5483
sg4
(lp5484
sg6
(lp5485
(dp5486
g9
I0
sg10
VC0553581
p5487
sg12
I18
sg13
VRound cell sarcoma
p5488
sg15
I3
sasa(dp5489
g2
S'Hypofibrinogenemia is an entity.'
p5490
sg4
(lp5491
sg6
(lp5492
(dp5493
g9
I0
sg10
VC0553681
p5494
sg12
I18
sg13
VHypofibrinogenemia
p5495
sg15
I1
sasa(dp5496
g2
S'Malignant epithelioma is an entity.'
p5497
sg4
(lp5498
sg6
(lp5499
(dp5500
g9
I0
sg10
VC0553707
p5501
sg12
I21
sg13
VMalignant epithelioma
p5502
sg15
I2
sasa(dp5503
g2
S'Renal artery occlusion is an entity.'
p5504
sg4
(lp5505
sg6
(lp5506
(dp5507
g9
I0
sg10
VC0553718
p5508
sg12
I22
sg13
VRenal artery occlusion
p5509
sg15
I3
sasa(dp5510
g2
S'Streptococcus pyogenes infection is an entity.'
p5511
sg4
(lp5512
sg6
(lp5513
(dp5514
g9
I0
sg10
VC0554628
p5515
sg12
I32
sg13
VStreptococcus pyogenes infection
p5516
sg15
I3
sasa(dp5517
g2
S'Pallor of optic disc is an entity.'
p5518
sg4
(lp5519
sg6
(lp5520
(dp5521
g9
I0
sg10
VC0030232
p5522
sg12
I6
sg13
VPallor
p5523
sg15
I1
sasa(dp5524
g2
S'Chiari malformation type II is an entity.'
p5525
sg4
(lp5526
sg6
(lp5527
(dp5528
g9
I0
sg10
VC0555206
p5529
sg12
I27
sg13
VChiari malformation type II
p5530
sg15
I4
sasa(dp5531
g2
S'Oral infection is an entity. \n'
p5532
sg4
(lp5533
sg6
(lp5534
(dp5535
g9
I0
sg10
VC0555971
p5536
sg12
I14
sg13
VOral infection
p5537
sg15
I2
sasa(dp5538
g2
S'Drunk driving is an entity.'
p5539
sg4
(lp5540
sg6
(lp5541
(dp5542
g9
I0
sg10
VC0556374
p5543
sg12
I13
sg13
VDrunk driving
p5544
sg15
I2
sasa(dp5545
g2
S'3-Methylglutaconic aciduria type 3 is an entity.'
p5546
sg4
(lp5547
sg6
(lp5548
(dp5549
g9
I0
sg10
VC0574084
p5550
sg12
I34
sg13
V3-Methylglutaconic aciduria type 3
p5551
sg15
I4
sasa(dp5552
g2
S'Short sternum is an entity.'
p5553
sg4
(lp5554
sg6
(lp5555
sa(dp5556
g2
S'Latex allergy is an entity.'
p5557
sg4
(lp5558
sg6
(lp5559
(dp5560
g9
I0
sg10
VC0577628
p5561
sg12
I13
sg13
VLatex allergy
p5562
sg15
I2
sasa(dp5563
g2
S'Disseminated squamous cell carcinoma is an entity.'
p5564
sg4
(lp5565
sg6
(lp5566
(dp5567
g9
I0
sg10
VC0577691
p5568
sg12
I36
sg13
VDisseminated squamous cell carcinoma
p5569
sg15
I4
sasa(dp5570
g2
S'Antibiotic-associated diarrhea is an entity.'
p5571
sg4
(lp5572
sg6
(lp5573
(dp5574
g9
I0
sg10
VC0578159
p5575
sg12
I30
sg13
VAntibiotic-associated diarrhea
p5576
sg15
I2
sasa(dp5577
g2
S'Cavitation of lung is an entity.'
p5578
sg4
(lp5579
sg6
(lp5580
(dp5581
g9
I0
sg10
VC0578537
p5582
sg12
I18
sg13
VCavitation of lung
p5583
sg15
I3
sasa(dp5584
g2
S'Severe asthma is an entity.'
p5585
sg4
(lp5586
sg6
(lp5587
(dp5588
g9
I7
sg10
VC0004096
p5589
sg12
I6
sg13
Vasthma
p5590
sg15
I1
sasa(dp5591
g2
S'Acute intestinal obstruction is an entity.'
p5592
sg4
(lp5593
sg6
(lp5594
(dp5595
g9
I0
sg10
VC0581359
p5596
sg12
I28
sg13
VAcute intestinal obstruction
p5597
sg15
I3
sasa(dp5598
g2
S'Minor oral aphthous ulceration is an entity. \n'
p5599
sg4
(lp5600
sg6
(lp5601
(dp5602
g9
I0
sg10
VC0585213
p5603
sg12
I30
sg13
VMinor oral aphthous ulceration
p5604
sg15
I4
sasa(dp5605
g2
S'Multiple lacunar infarcts is an entity.'
p5606
sg4
(lp5607
sg6
(lp5608
(dp5609
g9
I0
sg10
VC0585229
p5610
sg12
I25
sg13
VMultiple lacunar infarcts
p5611
sg15
I3
sasa(dp5612
g2
S'X-Linked Infantile Nystagmus is an entity.'
p5613
sg4
(lp5614
sg6
(lp5615
(dp5616
g9
I19
sg10
VC0028738
p5617
sg12
I9
sg13
VNystagmus
p5618
sg15
I1
sasa(dp5619
g2
S'cortex bone disorders is an entity.'
p5620
sg4
(lp5621
sg6
(lp5622
(dp5623
g9
I0
sg10
VC0595905
p5624
sg12
I21
sg13
Vcortex bone disorders
p5625
sg15
I3
sasa(dp5626
g2
S'Atypical absence seizure is an entity.'
p5627
sg4
(lp5628
sg6
(lp5629
(dp5630
g9
I0
sg10
VC0595948
p5631
sg12
I24
sg13
VAtypical absence seizure
p5632
sg15
I3
sasa(dp5633
g2
S'Drug exanthem is an entity.'
p5634
sg4
(lp5635
sg6
(lp5636
(dp5637
g9
I0
sg10
VC0595956
p5638
sg12
I13
sg13
VDrug exanthem
p5639
sg15
I2
sasa(dp5640
g2
S'lipoprotein disorder is an entity.'
p5641
sg4
(lp5642
sg6
(lp5643
(dp5644
g9
I0
sg10
VC0596848
p5645
sg12
I20
sg13
Vlipoprotein disorder
p5646
sg15
I2
sasa(dp5647
g2
S'mathematical ability is an entity.'
p5648
sg4
(lp5649
sg6
(lp5650
sa(dp5651
g2
S'Neurogenic hypertension is an entity.'
p5652
sg4
(lp5653
sg6
(lp5654
(dp5655
g9
I0
sg10
VC0597048
p5656
sg12
I23
sg13
VNeurogenic hypertension
p5657
sg15
I2
sasa(dp5658
g2
S'Hot flushes is an entity.'
p5659
sg4
(lp5660
sg6
(lp5661
(dp5662
g9
I0
sg10
VC0600142
p5663
sg12
I11
sg13
VHot flushes
p5664
sg15
I2
sasa(dp5665
g2
S'Stomatocytosis Result is an entity. \n'
p5666
sg4
(lp5667
sg6
(lp5668
(dp5669
g9
I0
sg10
VC0272048
p5670
sg12
I14
sg13
VStomatocytosis
p5671
sg15
I1
sasa(dp5672
g2
S'Hashimoto Disease is an entity.'
p5673
sg4
(lp5674
sg6
(lp5675
(dp5676
g9
I0
sg10
VC0920350
p5677
sg12
I17
sg13
VHashimoto Disease
p5678
sg15
I2
sasa(dp5679
g2
S'Progressive Neoplastic Disease is an entity.'
p5680
sg4
(lp5681
sg6
(lp5682
(dp5683
g9
I0
sg10
VC0677932
p5684
sg12
I30
sg13
VProgressive Neoplastic Disease
p5685
sg15
I3
sasa(dp5686
g2
S'Stage IV Colorectal Cancer is an entity.'
p5687
sg4
(lp5688
sg6
(lp5689
(dp5690
g9
I0
sg10
VC3146251
p5691
sg12
I26
sg13
VStage IV Colorectal Cancer
p5692
sg15
I4
sasa(dp5693
g2
S'Congenital Epicanthus is an entity.'
p5694
sg4
(lp5695
sg6
(lp5696
(dp5697
g9
I0
sg10
VC0678230
p5698
sg12
I21
sg13
VCongenital Epicanthus
p5699
sg15
I2
sasa(dp5700
g2
S'alcohol sensitivity is an entity.'
p5701
sg4
(lp5702
sg6
(lp5703
sa(dp5704
g2
S'Vascular rupture is an entity.'
p5705
sg4
(lp5706
sg6
(lp5707
(dp5708
g9
I0
sg10
VC0679401
p5709
sg12
I16
sg13
VVascular rupture
p5710
sg15
I2
sasa(dp5711
g2
S'Lesion of stomach is an entity.'
p5712
sg4
(lp5713
sg6
(lp5714
(dp5715
g9
I0
sg10
VC0679408
p5716
sg12
I17
sg13
VLesion of stomach
p5717
sg15
I3
sasa(dp5718
g2
S'iron loading anemia is an entity.'
p5719
sg4
(lp5720
sg6
(lp5721
(dp5722
g9
I13
sg10
VC0002871
p5723
sg12
I6
sg13
Vanemia
p5724
sg15
I1
sasa(dp5725
g2
S'myeloblastosis is an entity.'
p5726
sg4
(lp5727
sg6
(lp5728
(dp5729
g9
I0
sg10
VC0679427
p5730
sg12
I14
sg13
Vmyeloblastosis
p5731
sg15
I1
sasa(dp5732
g2
S'Psychomotor Impairment is an entity. \n'
p5733
sg4
(lp5734
sg6
(lp5735
(dp5736
g9
I0
sg10
VC0679465
p5737
sg12
I22
sg13
VPsychomotor Impairment
p5738
sg15
I2
sasa(dp5739
g2
S'Mental impairment is an entity.'
p5740
sg4
(lp5741
sg6
(lp5742
(dp5743
g9
I0
sg10
VC1306341
p5744
sg12
I17
sg13
VMental impairment
p5745
sg15
I2
sasa(dp5746
g2
S'Bacterial sepsis is an entity.'
p5747
sg4
(lp5748
sg6
(lp5749
(dp5750
g9
I0
sg10
VC0684256
p5751
sg12
I16
sg13
VBacterial sepsis
p5752
sg15
I2
sasa(dp5753
g2
S'Hypsarrhythmia is an entity.'
p5754
sg4
(lp5755
sg6
(lp5756
(dp5757
g9
I0
sg10
VC0037769
p5758
sg12
I14
sg13
VHypsarrhythmia
p5759
sg15
I1
sasa(dp5760
g2
S'Deficiency of phosphoglycerate kinase is an entity.'
p5761
sg4
(lp5762
sg6
(lp5763
(dp5764
g9
I0
sg10
VC0684324
p5765
sg12
I37
sg13
VDeficiency of phosphoglycerate kinase
p5766
sg15
I4
sasa(dp5767
g2
S'Congenital Camptodactyly is an entity.'
p5768
sg4
(lp5769
sg6
(lp5770
(dp5771
g9
I0
sg10
VC0685409
p5772
sg12
I24
sg13
VCongenital Camptodactyly
p5773
sg15
I2
sasa(dp5774
g2
S'Congenital dilatation of bladder is an entity.'
p5775
sg4
(lp5776
sg6
(lp5777
(dp5778
g9
I0
sg10
VC0685828
p5779
sg12
I32
sg13
VCongenital dilatation of bladder
p5780
sg15
I4
sasa(dp5781
g2
S'Congenital hypoplasia of ovary is an entity.'
p5782
sg4
(lp5783
sg6
(lp5784
(dp5785
g9
I0
sg10
VC0685840
p5786
sg12
I30
sg13
VCongenital hypoplasia of ovary
p5787
sg15
I4
sasa(dp5788
g2
S'Tardive Dyskinesia is an entity.'
p5789
sg4
(lp5790
sg6
(lp5791
(dp5792
g9
I0
sg10
VC0152115
p5793
sg12
I18
sg13
VTardive Dyskinesia
p5794
sg15
I2
sasa(dp5795
g2
S'Lack of bone formation is an entity.'
p5796
sg4
(lp5797
sg6
(lp5798
(dp5799
g9
I0
sg10
VC0686761
p5800
sg12
I22
sg13
VLack of bone formation
p5801
sg15
I4
sasa(dp5802
g2
S'Community acquired pneumonia is an entity. \n'
p5803
sg4
(lp5804
sg6
(lp5805
(dp5806
g9
I0
sg10
VC0694549
p5807
sg12
I28
sg13
VCommunity acquired pneumonia
p5808
sg15
I3
sasa(dp5809
g2
S'Chronic progressive chorea is an entity.'
p5810
sg4
(lp5811
sg6
(lp5812
(dp5813
g9
I0
sg10
VC0020179
p5814
sg12
I26
sg13
VChronic progressive chorea
p5815
sg15
I3
sasa(dp5816
g2
S'Progressive chorea is an entity.'
p5817
sg4
(lp5818
sg6
(lp5819
(dp5820
g9
I0
sg10
VC0699734
p5821
sg12
I18
sg13
VProgressive chorea
p5822
sg15
I2
sasa(dp5823
g2
S'Congenital muscular dystrophy (disorder) is an entity.'
p5824
sg4
(lp5825
sg6
(lp5826
(dp5827
g9
I0
sg10
VC0699743
p5828
sg12
I29
sg13
VCongenital muscular dystrophy
p5829
sg15
I3
sasa(dp5830
g2
S'H/O: menorrhagia is an entity.'
p5831
sg4
(lp5832
sg6
(lp5833
(dp5834
g9
I0
sg10
VC0699890
p5835
sg12
I16
sg13
VH/O: menorrhagia
p5836
sg15
I2
sasa(dp5837
g2
S'Acquired scoliosis is an entity.'
p5838
sg4
(lp5839
sg6
(lp5840
(dp5841
g9
I0
sg10
VC0700208
p5842
sg12
I18
sg13
VAcquired scoliosis
p5843
sg15
I2
sasa(dp5844
g2
S'Heinz Body Anemias is an entity.'
p5845
sg4
(lp5846
sg6
(lp5847
(dp5848
g9
I0
sg10
VC0700299
p5849
sg12
I18
sg13
VHeinz Body Anemias
p5850
sg15
I3
sasa(dp5851
g2
S'Poor short-term memory is an entity.'
p5852
sg4
(lp5853
sg6
(lp5854
(dp5855
g9
I0
sg10
VC0701811
p5856
sg12
I22
sg13
VPoor short-term memory
p5857
sg15
I3
sasa(dp5858
g2
S'Staggering gait is an entity.'
p5859
sg4
(lp5860
sg6
(lp5861
(dp5862
g9
I0
sg10
VC0231690
p5863
sg12
I15
sg13
VStaggering gait
p5864
sg15
I2
sasa(dp5865
g2
S'Atrichia is an entity.'
p5866
sg4
(lp5867
sg6
(lp5868
(dp5869
g9
I0
sg10
VC0702167
p5870
sg12
I8
sg13
VAtrichia
p5871
sg15
I1
sasa(dp5872
g2
S'Preterm premature rupture of membranes (disorder) is an entity. \n'
p5873
sg4
(lp5874
sg6
(lp5875
(dp5876
g9
I0
sg10
VC0729264
p5877
sg12
I38
sg13
VPreterm premature rupture of membranes
p5878
sg15
I5
sasa(dp5879
g2
S'Severe nonproliferative diabetic retinopathy is an entity.'
p5880
sg4
(lp5881
sg6
(lp5882
(dp5883
g9
I0
sg10
VC0730278
p5884
sg12
I44
sg13
VSevere nonproliferative diabetic retinopathy
p5885
sg15
I4
sasa(dp5886
g2
S'Acute diarrhea is an entity.'
p5887
sg4
(lp5888
sg6
(lp5889
(dp5890
g9
I0
sg10
VC0740441
p5891
sg12
I14
sg13
VAcute diarrhea
p5892
sg15
I2
sasa(dp5893
g2
S'Malignant neoplasm of kidney is an entity.'
p5894
sg4
(lp5895
sg6
(lp5896
(dp5897
g9
I0
sg10
VC0740457
p5898
sg12
I28
sg13
VMalignant neoplasm of kidney
p5899
sg15
I4
sasa(dp5900
g2
S'Hypokalemic metabolic alkalosis is an entity.'
p5901
sg4
(lp5902
sg6
(lp5903
(dp5904
g9
I0
sg10
VC0740898
p5905
sg12
I31
sg13
VHypokalemic metabolic alkalosis
p5906
sg15
I3
sasa(dp5907
g2
S'aspirin sensitivity is an entity.'
p5908
sg4
(lp5909
sg6
(lp5910
(dp5911
g9
I0
sg10
VC0741250
p5912
sg12
I19
sg13
Vaspirin sensitivity
p5913
sg15
I2
sasa(dp5914
g2
S'Catheter infection is an entity.'
p5915
sg4
(lp5916
sg6
(lp5917
(dp5918
g9
I0
sg10
VC0742006
p5919
sg12
I18
sg13
VCatheter infection
p5920
sg15
I2
sasa(dp5921
g2
S'Cerebellar vermis atrophy is an entity.'
p5922
sg4
(lp5923
sg6
(lp5924
(dp5925
g9
I0
sg10
VC0742028
p5926
sg12
I25
sg13
VCerebellar vermis atrophy
p5927
sg15
I3
sasa(dp5928
g2
S'depression anxiety disorder is an entity.'
p5929
sg4
(lp5930
sg6
(lp5931
(dp5932
g9
I0
sg10
VC0743073
p5933
sg12
I27
sg13
Vdepression anxiety disorder
p5934
sg15
I3
sasa(dp5935
g2
S'endometrial polyp benign is an entity.'
p5936
sg4
(lp5937
sg6
(lp5938
(dp5939
g9
I0
sg10
VC0743515
p5940
sg12
I24
sg13
Vendometrial polyp benign
p5941
sg15
I3
sasa(dp5942
g2
S'Gastrointestinal polyps is an entity. \n'
p5943
sg4
(lp5944
sg6
(lp5945
(dp5946
g9
I17
sg10
VC0032584
p5947
sg12
I6
sg13
Vpolyps
p5948
sg15
I1
sasa(dp5949
g2
S'Hyperlipoproteinemia Type IIa is an entity.'
p5950
sg4
(lp5951
sg6
(lp5952
(dp5953
g9
I0
sg10
VC0745103
p5954
sg12
I29
sg13
VHyperlipoproteinemia Type IIa
p5955
sg15
I3
sasa(dp5956
g2
S'infertility tubal factor is an entity.'
p5957
sg4
(lp5958
sg6
(lp5959
(dp5960
g9
I0
sg10
VC0745287
p5961
sg12
I24
sg13
Vinfertility tubal factor
p5962
sg15
I3
sasa(dp5963
g2
S'knee symptoms is an entity.'
p5964
sg4
(lp5965
sg6
(lp5966
(dp5967
g9
I0
sg10
VC0745581
p5968
sg12
I13
sg13
Vknee symptoms
p5969
sg15
I2
sasa(dp5970
g2
S'lupus cutaneous is an entity.'
p5971
sg4
(lp5972
sg6
(lp5973
(dp5974
g9
I0
sg10
VC0746306
p5975
sg12
I15
sg13
Vlupus cutaneous
p5976
sg15
I2
sasa(dp5977
g2
S'lymph node infected is an entity.'
p5978
sg4
(lp5979
sg6
(lp5980
(dp5981
g9
I0
sg10
VC0746316
p5982
sg12
I19
sg13
Vlymph node infected
p5983
sg15
I3
sasa(dp5984
g2
S'Ovarian failure is an entity.'
p5985
sg4
(lp5986
sg6
(lp5987
(dp5988
g9
I0
sg10
VC0025322
p5989
sg12
I15
sg13
VOvarian failure
p5990
sg15
I2
sasa(dp5991
g2
S'pancreatitis idiopathic is an entity.'
p5992
sg4
(lp5993
sg6
(lp5994
(dp5995
g9
I0
sg10
VC0747198
p5996
sg12
I23
sg13
Vpancreatitis idiopathic
p5997
sg15
I2
sasa(dp5998
g2
S'Paranoid ideation is an entity.'
p5999
sg4
(lp6000
sg6
(lp6001
(dp6002
g9
I0
sg10
VC0747249
p6003
sg12
I17
sg13
VParanoid ideation
p6004
sg15
I2
sasa(dp6005
g2
S'polyglandular failure is an entity.'
p6006
sg4
(lp6007
sg6
(lp6008
(dp6009
g9
I0
sg10
VC0747739
p6010
sg12
I21
sg13
Vpolyglandular failure
p6011
sg15
I2
sasa(dp6012
g2
S'early pregnancy is an entity. \n'
p6013
sg4
(lp6014
sg6
(lp6015
(dp6016
g9
I0
sg10
VC0747845
p6017
sg12
I15
sg13
Vearly pregnancy
p6018
sg15
I2
sasa(dp6019
g2
S'Scleroderma, Limited is an entity.'
p6020
sg4
(lp6021
sg6
(lp6022
(dp6023
g9
I0
sg10
VC0748540
p6024
sg12
I20
sg13
VScleroderma, Limited
p6025
sg15
I2
sasa(dp6026
g2
S'Recurrent seizures is an entity.'
p6027
sg4
(lp6028
sg6
(lp6029
(dp6030
g9
I0
sg10
VC0748607
p6031
sg12
I18
sg13
VRecurrent seizures
p6032
sg15
I2
sasa(dp6033
g2
S'sick sinus is an entity.'
p6034
sg4
(lp6035
sg6
(lp6036
(dp6037
g9
I0
sg10
VC0748694
p6038
sg12
I10
sg13
Vsick sinus
p6039
sg15
I2
sasa(dp6040
g2
S'VAGINOSIS is an entity.'
p6041
sg4
(lp6042
sg6
(lp6043
(dp6044
g9
I0
sg10
VC0750114
p6045
sg12
I9
sg13
VVAGINOSIS
p6046
sg15
I1
sasa(dp6047
g2
S'Adrenal Cancer is an entity.'
p6048
sg4
(lp6049
sg6
(lp6050
(dp6051
g9
I0
sg10
VC0750887
p6052
sg12
I14
sg13
VAdrenal Cancer
p6053
sg15
I2
sasa(dp6054
g2
S'Biliary Tract Cancer is an entity.'
p6055
sg4
(lp6056
sg6
(lp6057
(dp6058
g9
I0
sg10
VC0750952
p6059
sg12
I20
sg13
VBiliary Tract Cancer
p6060
sg15
I3
sasa(dp6061
g2
S'Brain Tumor, Primary is an entity.'
p6062
sg4
(lp6063
sg6
(lp6064
(dp6065
g9
I0
sg10
VC0750974
p6066
sg12
I20
sg13
VBrain Tumor, Primary
p6067
sg15
I3
sasa(dp6068
g2
S'Cancer of Digestive System is an entity.'
p6069
sg4
(lp6070
sg6
(lp6071
(dp6072
g9
I0
sg10
VC0751075
p6073
sg12
I26
sg13
VCancer of Digestive System
p6074
sg15
I4
sasa(dp6075
g2
S'Narcolepsy-Cataplexy Syndrome is an entity.'
p6076
sg4
(lp6077
sg6
(lp6078
(dp6079
g9
I0
sg10
VC0751362
p6080
sg12
I29
sg13
VNarcolepsy-Cataplexy Syndrome
p6081
sg15
I2
sasa(dp6082
g2
S'Radiation-Induced Cancer is an entity. \n'
p6083
sg4
(lp6084
sg6
(lp6085
(dp6086
g9
I0
sg10
VC0751366
p6087
sg12
I24
sg13
VRadiation-Induced Cancer
p6088
sg15
I2
sasa(dp6089
g2
S'Pelvic Cancer is an entity.'
p6090
sg4
(lp6091
sg6
(lp6092
(dp6093
g9
I0
sg10
VC0751416
p6094
sg12
I13
sg13
VPelvic Cancer
p6095
sg15
I2
sasa(dp6096
g2
S'Human Transmissible Spongiform Encephalopathies, Inherited is an entity.'
p6097
sg4
(lp6098
sg6
(lp6099
(dp6100
g9
I0
sg10
VC0751645
p6101
sg12
I58
sg13
VHuman Transmissible Spongiform Encephalopathies, Inherited
p6102
sg15
I5
sasa(dp6103
g2
S'Argininosuccinic Acid Synthetase Deficiency, Complete is an entity.'
p6104
sg4
(lp6105
(dp6106
g9
I0
sg585
g586
sg12
I32
sg13
VArgininosuccinic Acid Synthetase
p6107
sg15
I3
sasg6
(lp6108
(dp6109
g9
I0
sg10
VC0751751
p6110
sg12
I53
sg13
VArgininosuccinic Acid Synthetase Deficiency, Complete
p6111
sg15
I5
sasa(dp6112
g2
S'Carotid Artery, Internal, Dissection is an entity.'
p6113
sg4
(lp6114
sg6
(lp6115
(dp6116
g9
I0
sg10
VC0751815
p6117
sg12
I36
sg13
VCarotid Artery, Internal, Dissection
p6118
sg15
I4
sasa(dp6119
g2
S'Heredodegenerative Disorders, Nervous System is an entity.'
p6120
sg4
(lp6121
sg6
(lp6122
(dp6123
g9
I0
sg10
VC0751870
p6124
sg12
I44
sg13
VHeredodegenerative Disorders, Nervous System
p6125
sg15
I4
sasa(dp6126
g2
S'Vasculitis, Central Nervous System is an entity.'
p6127
sg4
(lp6128
sg6
(lp6129
(dp6130
g9
I0
sg10
VC0751878
p6131
sg12
I34
sg13
VVasculitis, Central Nervous System
p6132
sg15
I4
sasa(dp6133
g2
S'Vasospasm, Intracranial is an entity.'
p6134
sg4
(lp6135
sg6
(lp6136
(dp6137
g9
I0
sg10
VC0751895
p6138
sg12
I23
sg13
VVasospasm, Intracranial
p6139
sg15
I2
sasa(dp6140
g2
S'Pelizaeus-Merzbacher Disease, Atypical is an entity.'
p6141
sg4
(lp6142
sg6
(lp6143
(dp6144
g9
I0
sg10
VC0751915
p6145
sg12
I38
sg13
VPelizaeus-Merzbacher Disease, Atypical
p6146
sg15
I3
sasa(dp6147
g2
S'Hypocatalasemia is an entity.'
p6148
sg4
(lp6149
sg6
(lp6150
(dp6151
g9
I0
sg10
VC0752048
p6152
sg12
I15
sg13
VHypocatalasemia
p6153
sg15
I1
sasa(dp6154
g2
S'Hypoxic-Ischemic Encephalopathy is an entity. \n'
p6155
sg4
(lp6156
sg6
(lp6157
(dp6158
g9
I0
sg10
VC0752304
p6159
sg12
I31
sg13
VHypoxic-Ischemic Encephalopathy
p6160
sg15
I2
sasa(dp6161
g2
S'Myotonia Fluctuans (disorder) is an entity.'
p6162
sg4
(lp6163
sg6
(lp6164
(dp6165
g9
I0
sg10
VC0752355
p6166
sg12
I18
sg13
VMyotonia Fluctuans
p6167
sg15
I2
sasa(dp6168
g2
S'Congenital omphalocele is an entity.'
p6169
sg4
(lp6170
sg6
(lp6171
(dp6172
g9
I0
sg10
VC0795690
p6173
sg12
I22
sg13
VCongenital omphalocele
p6174
sg15
I2
sasa(dp6175
g2
S'Chromosome 1, monosomy 1p is an entity.'
p6176
sg4
(lp6177
sg6
(lp6178
(dp6179
g9
I0
sg10
VC0795796
p6180
sg12
I25
sg13
VChromosome 1, monosomy 1p
p6181
sg15
I4
sasa(dp6182
g2
S'Chromosome 3, trisomy 3q is an entity.'
p6183
sg4
(lp6184
sg6
(lp6185
(dp6186
g9
I0
sg10
VC0795809
p6187
sg12
I24
sg13
VChromosome 3, trisomy 3q
p6188
sg15
I4
sasa(dp6189
g2
S'chromosome 11q duplication syndrome is an entity.'
p6190
sg4
(lp6191
sg6
(lp6192
(dp6193
g9
I0
sg10
VC0795842
p6194
sg12
I35
sg13
Vchromosome 11q duplication syndrome
p6195
sg15
I4
sasa(dp6196
g2
S'Chromosome 15q, trisomy is an entity.'
p6197
sg4
(lp6198
sg6
(lp6199
(dp6200
g9
I0
sg10
VC0795858
p6201
sg12
I23
sg13
VChromosome 15q, trisomy
p6202
sg15
I3
sasa(dp6203
g2
S'Smith-Magenis syndrome is an entity.'
p6204
sg4
(lp6205
sg6
(lp6206
(dp6207
g9
I0
sg10
VC0795864
p6208
sg12
I22
sg13
VSmith-Magenis syndrome
p6209
sg15
I2
sasa(dp6210
g2
S'Monosomy 22 is an entity.'
p6211
sg4
(lp6212
sg6
(lp6213
(dp6214
g9
I0
sg10
VC0795878
p6215
sg12
I11
sg13
VMonosomy 22
p6216
sg15
I2
sasa(dp6217
g2
S'22q deletion syndrome is an entity.'
p6218
sg4
(lp6219
sg6
(lp6220
(dp6221
g9
I0
sg10
VC0795880
p6222
sg12
I21
sg13
V22q deletion syndrome
p6223
sg15
I3
sasa(dp6224
g2
S'CONOTRUNCAL ANOMALY FACE SYNDROME is an entity. \n'
p6225
sg4
(lp6226
sg6
(lp6227
(dp6228
g9
I0
sg10
VC0795907
p6229
sg12
I33
sg13
VCONOTRUNCAL ANOMALY FACE SYNDROME
p6230
sg15
I4
sasa(dp6231
g2
S'Lujan Fryns syndrome is an entity.'
p6232
sg4
(lp6233
sg6
(lp6234
(dp6235
g9
I0
sg10
VC0796022
p6236
sg12
I20
sg13
VLujan Fryns syndrome
p6237
sg15
I3
sasa(dp6238
g2
S'Nephroblastomatosis, fetal ascites, macrosomia and Wilms tumor is an entity.'
p6239
sg4
(lp6240
sg6
(lp6241
(dp6242
g9
I0
sg10
VC0796113
p6243
sg12
I62
sg13
VNephroblastomatosis, fetal ascites, macrosomia and Wilms tumor
p6244
sg15
I7
sasa(dp6245
g2
S'3C syndrome is an entity.'
p6246
sg4
(lp6247
sg6
(lp6248
(dp6249
g9
I0
sg10
VC0796137
p6250
sg12
I11
sg13
V3C syndrome
p6251
sg15
I2
sasa(dp6252
g2
S'Rosselli-Gulienetti syndrome is an entity.'
p6253
sg4
(lp6254
sg6
(lp6255
(dp6256
g9
I0
sg10
VC0796139
p6257
sg12
I28
sg13
VRosselli-Gulienetti syndrome
p6258
sg15
I2
sasa(dp6259
g2
S'MENTAL RETARDATION, X-LINKED 14 is an entity.'
p6260
sg4
(lp6261
sg6
(lp6262
(dp6263
g9
I0
sg10
VC0796220
p6264
sg12
I31
sg13
VMENTAL RETARDATION, X-LINKED 14
p6265
sg15
I4
sasa(dp6266
g2
S'Malignant Pleural Mesothelioma is an entity.'
p6267
sg4
(lp6268
sg6
(lp6269
(dp6270
g9
I0
sg10
VC0812413
p6271
sg12
I30
sg13
VMalignant Pleural Mesothelioma
p6272
sg15
I3
sasa(dp6273
g2
S'Spots on skin is an entity.'
p6274
sg4
(lp6275
sg6
(lp6276
(dp6277
g9
I0
sg10
VC0848332
p6278
sg12
I13
sg13
VSpots on skin
p6279
sg15
I3
sasa(dp6280
g2
S'hypertensive nephropathy is an entity.'
p6281
sg4
(lp6282
sg6
(lp6283
(dp6284
g9
I0
sg10
VC0848548
p6285
sg12
I24
sg13
Vhypertensive nephropathy
p6286
sg15
I2
sasa(dp6287
g2
S'Hypospadias is an entity.'
p6288
sg4
(lp6289
sg6
(lp6290
(dp6291
g9
I0
sg10
VC1691215
p6292
sg12
I11
sg13
VHypospadias
p6293
sg15
I1
sasa(dp6294
g2
S'Ventricular failure is an entity. \n'
p6295
sg4
(lp6296
sg6
(lp6297
(dp6298
g9
I0
sg10
VC0849925
p6299
sg12
I19
sg13
VVentricular failure
p6300
sg15
I2
sasa(dp6301
g2
S'Pregnancy associated hypertension is an entity.'
p6302
sg4
(lp6303
sg6
(lp6304
(dp6305
g9
I0
sg10
VC0340274
p6306
sg12
I33
sg13
VPregnancy associated hypertension
p6307
sg15
I3
sasa(dp6308
g2
S'Skin hemorrhages is an entity.'
p6309
sg4
(lp6310
sg6
(lp6311
(dp6312
g9
I0
sg10
VC0852361
p6313
sg12
I16
sg13
VSkin hemorrhages
p6314
sg15
I2
sasa(dp6315
g2
S'congenital cerebellar ataxia is an entity.'
p6316
sg4
(lp6317
sg6
(lp6318
(dp6319
g9
I0
sg10
VC0852975
p6320
sg12
I28
sg13
Vcongenital cerebellar ataxia
p6321
sg15
I3
sasa(dp6322
g2
S'Aortic thrombosis is an entity.'
p6323
sg4
(lp6324
sg6
(lp6325
(dp6326
g9
I0
sg10
VC0854142
p6327
sg12
I17
sg13
VAortic thrombosis
p6328
sg15
I2
sasa(dp6329
g2
S'Cells in urine is an entity.'
p6330
sg4
(lp6331
sg6
(lp6332
(dp6333
g9
I0
sg10
VC0854148
p6334
sg12
I14
sg13
VCells in urine
p6335
sg15
I3
sasa(dp6336
g2
S'Stage I Esophageal Squamous Cell Carcinoma is an entity.'
p6337
sg4
(lp6338
sg6
(lp6339
(dp6340
g9
I0
sg10
VC0854771
p6341
sg12
I42
sg13
VStage I Esophageal Squamous Cell Carcinoma
p6342
sg15
I6
sasa(dp6343
g2
S'Angiosarcoma non-metastatic is an entity.'
p6344
sg4
(lp6345
sg6
(lp6346
(dp6347
g9
I0
sg10
VC0854893
p6348
sg12
I27
sg13
VAngiosarcoma non-metastatic
p6349
sg15
I2
sasa(dp6350
g2
S'Adenocarcinoma of lung, stage I is an entity.'
p6351
sg4
(lp6352
sg6
(lp6353
(dp6354
g9
I0
sg10
VC0854985
p6355
sg12
I31
sg13
VAdenocarcinoma of lung, stage I
p6356
sg15
I5
sasa(dp6357
g2
S'Broad-based gait is an entity.'
p6358
sg4
(lp6359
sg6
(lp6360
sa(dp6361
g2
S'hyponatremic is an entity. \n'
p6362
sg4
(lp6363
sg6
(lp6364
(dp6365
g9
I0
sg10
VC0857122
p6366
sg12
I12
sg13
Vhyponatremic
p6367
sg15
I1
sasa(dp6368
g2
S'floppy is an entity.'
p6369
sg4
(lp6370
sg6
(lp6371
(dp6372
g9
I0
sg10
VC0857516
p6373
sg12
I6
sg13
Vfloppy
p6374
sg15
I1
sasa(dp6375
g2
S'Plasmodium vivax infection is an entity.'
p6376
sg4
(lp6377
sg6
(lp6378
(dp6379
g9
I0
sg10
VC0858321
p6380
sg12
I26
sg13
VPlasmodium vivax infection
p6381
sg15
I3
sasa(dp6382
g2
S'addicted to cocaine is an entity.'
p6383
sg4
(lp6384
sg6
(lp6385
(dp6386
g9
I0
sg10
VC0858355
p6387
sg12
I19
sg13
Vaddicted to cocaine
p6388
sg15
I3
sasa(dp6389
g2
S'Retinoic acid syndrome is an entity.'
p6390
sg4
(lp6391
sg6
(lp6392
(dp6393
g9
I0
sg10
VC0860564
p6394
sg12
I22
sg13
VRetinoic acid syndrome
p6395
sg15
I3
sasa(dp6396
g2
S'Anxiety symptoms is an entity.'
p6397
sg4
(lp6398
sg6
(lp6399
sa(dp6400
g2
S'Precursor B-lymphoblastic lymphoma stage II is an entity.'
p6401
sg4
(lp6402
sg6
(lp6403
(dp6404
g9
I0
sg10
VC0862039
p6405
sg12
I43
sg13
VPrecursor B-lymphoblastic lymphoma stage II
p6406
sg15
I5
sasa(dp6407
g2
S'agep is an entity.'
p6408
sg4
(lp6409
sg6
(lp6410
(dp6411
g9
I0
sg10
VC0863129
p6412
sg12
I4
sg13
Vagep
p6413
sg15
I1
sasa(dp6414
g2
S'Adult attention deficit hyperactivity disorder is an entity.'
p6415
sg4
(lp6416
sg6
(lp6417
(dp6418
g9
I0
sg10
VC0865424
p6419
sg12
I46
sg13
VAdult attention deficit hyperactivity disorder
p6420
sg15
I5
sasa(dp6421
g2
S'Postoperative peritoneal adhesions is an entity.'
p6422
sg4
(lp6423
sg6
(lp6424
(dp6425
g9
I0
sg10
VC0866036
p6426
sg12
I34
sg13
VPostoperative peritoneal adhesions
p6427
sg15
I3
sasa(dp6428
g2
S'Psychotic symptom is an entity. \n'
p6429
sg4
(lp6430
sg6
(lp6431
(dp6432
g9
I0
sg10
VC0871189
p6433
sg12
I17
sg13
VPsychotic symptom
p6434
sg15
I2
sasa(dp6435
g2
S'Bone infarction is an entity.'
p6436
sg4
(lp6437
sg6
(lp6438
(dp6439
g9
I0
sg10
VC0877326
p6440
sg12
I15
sg13
VBone infarction
p6441
sg15
I2
sasa(dp6442
g2
S'Intraepithelial Neoplasia is an entity.'
p6443
sg4
(lp6444
sg6
(lp6445
(dp6446
g9
I0
sg10
VC0878500
p6447
sg12
I25
sg13
VIntraepithelial Neoplasia
p6448
sg15
I2
sasa(dp6449
g2
S'beta Thalassemia, heterozygous is an entity.'
p6450
sg4
(lp6451
sg6
(lp6452
(dp6453
g9
I0
sg10
VC0005283
p6454
sg12
I16
sg13
Vbeta Thalassemia
p6455
sg15
I2
sasa(dp6456
g2
S'Transient Cerebral Ischemia is an entity.'
p6457
sg4
(lp6458
sg6
(lp6459
(dp6460
g9
I0
sg10
VC0917805
p6461
sg12
I27
sg13
VTransient Cerebral Ischemia
p6462
sg15
I3
sasa(dp6463
g2
S'Genomic Instability is an entity.'
p6464
sg4
(lp6465
sg6
(lp6466
(dp6467
g9
I0
sg10
VC0919532
p6468
sg12
I19
sg13
VGenomic Instability
p6469
sg15
I2
sasa(dp6470
g2
S'Vitamin D measurement is an entity.'
p6471
sg4
(lp6472
sg6
(lp6473
sa(dp6474
g2
S'aldosterone hypertension is an entity.'
p6475
sg4
(lp6476
sg6
(lp6477
(dp6478
g9
I0
sg10
VC0920393
p6479
sg12
I24
sg13
Valdosterone hypertension
p6480
sg15
I2
sasa(dp6481
g2
S'Chondroma is an entity.'
p6482
sg4
(lp6483
sg6
(lp6484
(dp6485
g9
I0
sg10
VC0936248
p6486
sg12
I9
sg13
VChondroma
p6487
sg15
I1
sasa(dp6488
g2
S'Blastoma is an entity.'
p6489
sg4
(lp6490
sg6
(lp6491
(dp6492
g9
I0
sg10
VC0936282
p6493
sg12
I8
sg13
VBlastoma
p6494
sg15
I1
sasa(dp6495
g2
S'Anal infection is an entity. \n'
p6496
sg4
(lp6497
sg6
(lp6498
(dp6499
g9
I0
sg10
VC0948075
p6500
sg12
I14
sg13
VAnal infection
p6501
sg15
I2
sasa(dp6502
g2
S'Gastrointestinal tract adenoma is an entity.'
p6503
sg4
(lp6504
sg6
(lp6505
(dp6506
g9
I0
sg10
VC0948101
p6507
sg12
I30
sg13
VGastrointestinal tract adenoma
p6508
sg15
I3
sasa(dp6509
g2
S'Alloimmunisation is an entity.'
p6510
sg4
(lp6511
sg6
(lp6512
(dp6513
g9
I0
sg10
VC0948201
p6514
sg12
I16
sg13
VAlloimmunisation
p6515
sg15
I1
sasa(dp6516
g2
S'Carcinoma of peritoneum is an entity.'
p6517
sg4
(lp6518
sg6
(lp6519
(dp6520
g9
I0
sg10
VC3163804
p6521
sg12
I23
sg13
VCarcinoma of peritoneum
p6522
sg15
I3
sasa(dp6523
g2
S'Venoocclusive disease is an entity.'
p6524
sg4
(lp6525
sg6
(lp6526
(dp6527
g9
I0
sg10
VC0948441
p6528
sg12
I21
sg13
VVenoocclusive disease
p6529
sg15
I2
sasa(dp6530
g2
S'Coronary Restenosis is an entity.'
p6531
sg4
(lp6532
sg6
(lp6533
(dp6534
g9
I0
sg10
VC0948480
p6535
sg12
I19
sg13
VCoronary Restenosis
p6536
sg15
I2
sasa(dp6537
g2
S'Pituitary hypoplasia is an entity.'
p6538
sg4
(lp6539
sg6
(lp6540
(dp6541
g9
I0
sg10
VC0948740
p6542
sg12
I20
sg13
VPituitary hypoplasia
p6543
sg15
I2
sasa(dp6544
g2
S'high weight is an entity.'
p6545
sg4
(lp6546
sg6
(lp6547
(dp6548
g9
I0
sg10
VC0948775
p6549
sg12
I11
sg13
Vhigh weight
p6550
sg15
I2
sasa(dp6551
g2
S'Delayed menarche is an entity.'
p6552
sg4
(lp6553
sg6
(lp6554
(dp6555
g9
I0
sg10
VC0949173
p6556
sg12
I16
sg13
VDelayed menarche
p6557
sg15
I2
sasa(dp6558
g2
S'Frasier Syndrome is an entity.'
p6559
sg4
(lp6560
sg6
(lp6561
(dp6562
g9
I0
sg10
VC0950122
p6563
sg12
I16
sg13
VFrasier Syndrome
p6564
sg15
I2
sasa(dp6565
g2
S'Papillomavirus Infections is an entity. \n'
p6566
sg4
(lp6567
sg6
(lp6568
(dp6569
g9
I0
sg10
VC0950124
p6570
sg12
I25
sg13
VPapillomavirus Infections
p6571
sg15
I2
sasa(dp6572
g2
S'Bronchopulmonary disease is an entity.'
p6573
sg4
(lp6574
sg6
(lp6575
(dp6576
g9
I0
sg10
VC1096000
p6577
sg12
I24
sg13
VBronchopulmonary disease
p6578
sg15
I2
sasa(dp6579
g2
S'Macrophage Activation Syndrome is an entity.'
p6580
sg4
(lp6581
sg6
(lp6582
(dp6583
g9
I0
sg10
VC1096155
p6584
sg12
I30
sg13
VMacrophage Activation Syndrome
p6585
sg15
I3
sasa(dp6586
g2
S'Chromosome 17 trisomy is an entity.'
p6587
sg4
(lp6588
sg6
(lp6589
(dp6590
g9
I0
sg10
VC1096168
p6591
sg12
I21
sg13
VChromosome 17 trisomy
p6592
sg15
I3
sasa(dp6593
g2
S'Vascular occlusion is an entity.'
p6594
sg4
(lp6595
sg6
(lp6596
(dp6597
g9
I0
sg10
VC1096458
p6598
sg12
I18
sg13
VVascular occlusion
p6599
sg15
I2
sasa(dp6600
g2
S'Hereditary factor IX deficiency disease without inhibitor is an entity.'
p6601
sg4
(lp6602
(dp6603
g9
I11
sg585
VP00740
p6604
sg12
I9
sg13
Vfactor IX
p6605
sg15
I2
sasg6
(lp6606
(dp6607
g9
I0
sg10
VC1096488
p6608
sg12
I57
sg13
VHereditary factor IX deficiency disease without inhibitor
p6609
sg15
I7
sasa(dp6610
g2
S'Intraabdominal Infections is an entity.'
p6611
sg4
(lp6612
sg6
(lp6613
(dp6614
g9
I0
sg10
VC1112209
p6615
sg12
I25
sg13
VIntraabdominal Infections
p6616
sg15
I2
sasa(dp6617
g2
S'Male sexual dysfunction is an entity.'
p6618
sg4
(lp6619
sg6
(lp6620
(dp6621
g9
I0
sg10
VC1112443
p6622
sg12
I23
sg13
VMale sexual dysfunction
p6623
sg15
I3
sasa(dp6624
g2
S'Nuclear non-senile cataract is an entity.'
p6625
sg4
(lp6626
sg6
(lp6627
(dp6628
g9
I0
sg10
VC1112705
p6629
sg12
I27
sg13
VNuclear non-senile cataract
p6630
sg15
I3
sasa(dp6631
g2
S'non-gonococcal urethritis (NGU) is an entity.'
p6632
sg4
(lp6633
sg6
(lp6634
(dp6635
g9
I0
sg10
VC0311389
p6636
sg12
I25
sg13
Vnon-gonococcal urethritis
p6637
sg15
I2
sa(dp6638
g9
I27
sg10
VC0311389
p6639
sg12
I3
sg13
VNGU
p6640
sg15
I1
sasa(dp6641
g2
S'liver lymphoma is an entity. \n'
p6642
sg4
(lp6643
sg6
(lp6644
(dp6645
g9
I0
sg10
VC1112746
p6646
sg12
I14
sg13
Vliver lymphoma
p6647
sg15
I2
sasa(dp6648
g2
S'brain morphology is an entity.'
p6649
sg4
(lp6650
sg6
(lp6651
sa(dp6652
g2
S'Critical illness myopathy is an entity.'
p6653
sg4
(lp6654
sg6
(lp6655
(dp6656
g9
I0
sg10
VC1135188
p6657
sg12
I25
sg13
VCritical illness myopathy
p6658
sg15
I3
sasa(dp6659
g2
S'Mental Retardation, X-Linked is an entity.'
p6660
sg4
(lp6661
sg6
(lp6662
(dp6663
g9
I0
sg10
VC1136249
p6664
sg12
I28
sg13
VMental Retardation, X-Linked
p6665
sg15
I3
sasa(dp6666
g2
S'Spider Veins is an entity.'
p6667
sg4
(lp6668
sg6
(lp6669
(dp6670
g9
I0
sg10
VC1138421
p6671
sg12
I12
sg13
VSpider Veins
p6672
sg15
I2
sasa(dp6673
g2
S'Vitamin E Assay is an entity.'
p6674
sg4
(lp6675
sg6
(lp6676
sa(dp6677
g2
S'Deafness, Sudden is an entity.'
p6678
sg4
(lp6679
sg6
(lp6680
(dp6681
g9
I0
sg10
VC1148477
p6682
sg12
I16
sg13
VDeafness, Sudden
p6683
sg15
I2
sasa(dp6684
g2
S'Endometrial adenocarcinoma is an entity.'
p6685
sg4
(lp6686
sg6
(lp6687
(dp6688
g9
I0
sg10
VC1153706
p6689
sg12
I26
sg13
VEndometrial adenocarcinoma
p6690
sg15
I2
sasa(dp6691
g2
S'Recurrent respiratory papillomatosis is an entity.'
p6692
sg4
(lp6693
sg6
(lp6694
(dp6695
g9
I0
sg10
VC1168198
p6696
sg12
I36
sg13
VRecurrent respiratory papillomatosis
p6697
sg15
I3
sasa(dp6698
g2
S'Asymmetric ears is an entity.'
p6699
sg4
(lp6700
sg6
(lp6701
(dp6702
g9
I0
sg10
VC1168239
p6703
sg12
I15
sg13
VAsymmetric ears
p6704
sg15
I2
sasa(dp6705
g2
S'Laryngopharyngeal Reflux is an entity. \n'
p6706
sg4
(lp6707
sg6
(lp6708
(dp6709
g9
I0
sg10
VC1168250
p6710
sg12
I24
sg13
VLaryngopharyngeal Reflux
p6711
sg15
I2
sasa(dp6712
g2
S'Pheochromocytoma, Extra-Adrenal is an entity.'
p6713
sg4
(lp6714
sg6
(lp6715
(dp6716
g9
I0
sg10
VC1257877
p6717
sg12
I31
sg13
VPheochromocytoma, Extra-Adrenal
p6718
sg15
I2
sasa(dp6719
g2
S'Infective dermatitis is an entity.'
p6720
sg4
(lp6721
sg6
(lp6722
(dp6723
g9
I0
sg10
VC1260874
p6724
sg12
I20
sg13
VInfective dermatitis
p6725
sg15
I2
sasa(dp6726
g2
S'Hypertrophic obesity is an entity.'
p6727
sg4
(lp6728
sg6
(lp6729
(dp6730
g9
I0
sg10
VC1260894
p6731
sg12
I20
sg13
VHypertrophic obesity
p6732
sg15
I2
sasa(dp6733
g2
S'Hepatitis, Drug-Induced is an entity.'
p6734
sg4
(lp6735
sg6
(lp6736
(dp6737
g9
I0
sg10
VC1262760
p6738
sg12
I23
sg13
VHepatitis, Drug-Induced
p6739
sg15
I2
sasa(dp6740
g2
S'Disorder of organic acid metabolism is an entity.'
p6741
sg4
(lp6742
sg6
(lp6743
(dp6744
g9
I0
sg10
VC1263739
p6745
sg12
I35
sg13
VDisorder of organic acid metabolism
p6746
sg15
I5
sasa(dp6747
g2
S'Alloimmune thrombocytopenia is an entity.'
p6748
sg4
(lp6749
sg6
(lp6750
(dp6751
g9
I0
sg10
VC1264031
p6752
sg12
I27
sg13
VAlloimmune thrombocytopenia
p6753
sg15
I2
sasa(dp6754
g2
S'von Willebrand Disease, Type 1 is an entity.'
p6755
sg4
(lp6756
(dp6757
g9
I0
sg585
VP04275
p6758
sg12
I30
sg13
Vvon Willebrand Disease, Type 1
p6759
sg15
I5
sasg6
(lp6760
(dp6761
g9
I0
sg10
VC1264039
p6762
sg12
I30
sg13
Vvon Willebrand Disease, Type 1
p6763
sg15
I5
sasa(dp6764
g2
S'Refractory anemia with ringed sideroblasts is an entity.'
p6765
sg4
(lp6766
sg6
(lp6767
(dp6768
g9
I0
sg10
VC1264195
p6769
sg12
I42
sg13
VRefractory anemia with ringed sideroblasts
p6770
sg15
I5
sasa(dp6771
g2
S'Papillary transitional cell neoplasm of low malignant potential is an entity.'
p6772
sg4
(lp6773
sg6
(lp6774
(dp6775
g9
I0
sg10
VC1266010
p6776
sg12
I63
sg13
VPapillary transitional cell neoplasm of low malignant potential
p6777
sg15
I8
sasa(dp6778
g2
S'Traditional Serrated Adenoma is an entity. \n'
p6779
sg4
(lp6780
sg6
(lp6781
(dp6782
g9
I0
sg10
VC1266025
p6783
sg12
I28
sg13
VTraditional Serrated Adenoma
p6784
sg15
I3
sasa(dp6785
g2
S'Polymorphous low grade adenocarcinoma is an entity.'
p6786
sg4
(lp6787
sg6
(lp6788
(dp6789
g9
I0
sg10
VC1266086
p6790
sg12
I37
sg13
VPolymorphous low grade adenocarcinoma
p6791
sg15
I4
sasa(dp6792
g2
S'Metaplastic carcinoma is an entity.'
p6793
sg4
(lp6794
sg6
(lp6795
(dp6796
g9
I0
sg10
VC1266089
p6797
sg12
I21
sg13
VMetaplastic carcinoma
p6798
sg15
I2
sasa(dp6799
g2
S'Thymic epithelial tumor is an entity.'
p6800
sg4
(lp6801
sg6
(lp6802
(dp6803
g9
I0
sg10
VC1266101
p6804
sg12
I23
sg13
VThymic epithelial tumor
p6805
sg15
I3
sasa(dp6806
g2
S'Myofibroma (morphologic abnormality) is an entity.'
p6807
sg4
(lp6808
sg6
(lp6809
(dp6810
g9
I0
sg10
VC0042133
p6811
sg12
I10
sg13
VMyofibroma
p6812
sg15
I1
sasa(dp6813
g2
S'Lymphocyte Rich Classical Hodgkin Lymphoma is an entity.'
p6814
sg4
(lp6815
sg6
(lp6816
(dp6817
g9
I0
sg10
VC1266194
p6818
sg12
I42
sg13
VLymphocyte Rich Classical Hodgkin Lymphoma
p6819
sg15
I5
sasa(dp6820
g2
S'Localized candidiasis is an entity.'
p6821
sg4
(lp6822
sg6
(lp6823
(dp6824
g9
I0
sg10
VC1268606
p6825
sg12
I21
sg13
VLocalized candidiasis
p6826
sg15
I2
sasa(dp6827
g2
S'Major Depressive Disorder is an entity.'
p6828
sg4
(lp6829
sg6
(lp6830
(dp6831
g9
I0
sg10
VC1269683
p6832
sg12
I25
sg13
VMajor Depressive Disorder
p6833
sg15
I3
sasa(dp6834
g2
S'Lower limb spasticity is an entity.'
p6835
sg4
(lp6836
sg6
(lp6837
(dp6838
g9
I11
sg10
VC0026838
p6839
sg12
I10
sg13
Vspasticity
p6840
sg15
I1
sasa(dp6841
g2
S'Inherited epidermolysis bullosa is an entity.'
p6842
sg4
(lp6843
sg6
(lp6844
(dp6845
g9
I0
sg10
VC1274224
p6846
sg12
I31
sg13
VInherited epidermolysis bullosa
p6847
sg15
I3
sasa(dp6848
g2
S'Odonto-onycho-dermal dysplasia is an entity. \n'
p6849
sg4
(lp6850
sg6
(lp6851
(dp6852
g9
I0
sg10
VC1275074
p6853
sg12
I30
sg13
VOdonto-onycho-dermal dysplasia
p6854
sg15
I2
sasa(dp6855
g2
S'TNF receptor-associated periodic fever syndrome (TRAPS) is an entity.'
p6856
sg4
(lp6857
(dp6858
g9
I0
sg585
VP01375
p6859
sg12
I12
sg13
VTNF receptor
p6860
sg15
I2
sasg6
(lp6861
(dp6862
g9
I49
sg10
VC1275126
p6863
sg12
I5
sg13
VTRAPS
p6864
sg15
I1
sa(dp6865
g9
I0
sg10
VC1275126
p6866
sg12
I47
sg13
VTNF receptor-associated periodic fever syndrome
p6867
sg15
I5
sasa(dp6868
g2
S'Soft tissue chondroma is an entity.'
p6869
sg4
(lp6870
sg6
(lp6871
(dp6872
g9
I0
sg10
VC1275277
p6873
sg12
I21
sg13
VSoft tissue chondroma
p6874
sg15
I3
sasa(dp6875
g2
S'Low-grade fibromyxoid sarcoma is an entity.'
p6876
sg4
(lp6877
sg6
(lp6878
(dp6879
g9
I0
sg10
VC1275282
p6880
sg12
I29
sg13
VLow-grade fibromyxoid sarcoma
p6881
sg15
I3
sasa(dp6882
g2
S'Primary cutaneous marginal zone B-cell lymphoma is an entity.'
p6883
sg4
(lp6884
sg6
(lp6885
(dp6886
g9
I0
sg10
VC1275321
p6887
sg12
I47
sg13
VPrimary cutaneous marginal zone B-cell lymphoma
p6888
sg15
I6
sasa(dp6889
g2
S'Hashimoto-Pritzker syndrome is an entity.'
p6890
sg4
(lp6891
sg6
(lp6892
(dp6893
g9
I0
sg10
VC1275336
p6894
sg12
I27
sg13
VHashimoto-Pritzker syndrome
p6895
sg15
I2
sasa(dp6896
g2
S'Desmoplastic spindle and epithelioid cell melanocytic nevus of skin is an entity.'
p6897
sg4
(lp6898
sg6
(lp6899
(dp6900
g9
I0
sg10
VC1275419
p6901
sg12
I67
sg13
VDesmoplastic spindle and epithelioid cell melanocytic nevus of skin
p6902
sg15
I9
sasa(dp6903
g2
S'Meibomian gland dysfunction is an entity.'
p6904
sg4
(lp6905
sg6
(lp6906
(dp6907
g9
I0
sg10
VC1275684
p6908
sg12
I27
sg13
VMeibomian gland dysfunction
p6909
sg15
I3
sasa(dp6910
g2
S'Transitional cell dysplasia is an entity.'
p6911
sg4
(lp6912
sg6
(lp6913
(dp6914
g9
I0
sg10
VC1275859
p6915
sg12
I27
sg13
VTransitional cell dysplasia
p6916
sg15
I3
sasa(dp6917
g2
S'Von Willebrand disease, platelet type is an entity.'
p6918
sg4
(lp6919
sg6
(lp6920
(dp6921
g9
I0
sg10
VC1280798
p6922
sg12
I37
sg13
VVon Willebrand disease, platelet type
p6923
sg15
I5
sasa(dp6924
g2
S'Corneal allograft rejection is an entity. \n'
p6925
sg4
(lp6926
sg6
(lp6927
(dp6928
g9
I0
sg10
VC1281914
p6929
sg12
I27
sg13
VCorneal allograft rejection
p6930
sg15
I3
sasa.