(lp0
(dp1
S'line'
p2
S'BRCA1 and BRCA2 genes'
p3
sS'genes'
p4
(lp5
(dp6
S'index'
p7
I10
sS'uniprot'
p8
VP51587
p9
sS'lengthInChars'
p10
I11
sS'name'
p11
VBRCA2 genes
p12
sS'lengthInWords'
p13
I2
sa(dp14
g7
I0
sg8
VP38398
p15
sg10
I5
sg11
VBRCA1
p16
sg13
I1
sasS'diseases'
p17
(lp18
sa(dp19
g2
S'Most inherited cases of breast cancer are associated with two abnormal genes: BRCA1 (BReast CAncer gene one) and BRCA2 (BReast CAncer gene two).'
p20
sg4
(lp21
(dp22
g7
I78
sg8
VP38398
p23
sg10
I5
sg11
VBRCA1
p24
sg13
I1
sa(dp25
g7
I113
sg8
VP51587
p26
sg10
I5
sg11
VBRCA2
p27
sg13
I1
sasg17
(lp28
(dp29
g7
I24
sS'cui'
p30
VC0678222
p31
sg10
I13
sg11
Vbreast cancer
p32
sg13
I2
sa(dp33
g7
I85
sg30
VC0678222
p34
sg10
I13
sg11
VBReast CAncer
p35
sg13
I2
sa(dp36
g7
I85
sg30
VC0678222
p37
sg10
I13
sg11
VBReast CAncer
p38
sg13
I2
sasa(dp39
g2
S"Having an abnormal BRCA1 or BRCA2 gene doesn't mean you will be diagnosed with breast cancer."
p40
sg4
(lp41
(dp42
g7
I28
sg8
VP51587
p43
sg10
I10
sg11
VBRCA2 gene
p44
sg13
I2
sa(dp45
g7
I19
sg8
VP38398
p46
sg10
I5
sg11
VBRCA1
p47
sg13
I1
sasg17
(lp48
(dp49
g7
I79
sg30
VC0678222
p50
sg10
I13
sg11
Vbreast cancer
p51
sg13
I2
sasa(dp52
g2
S"Researchers are learning that other mutations in pieces of chromosomes -- called SNPs (single nucleotide polymorphisms) -- may be linked to higher breast cancer risk in women with an abnormal BRCA1 gene as well as women who didn't inherit an abnormal breast cancer gene."
p53
sg4
(lp54
(dp55
g7
I192
sg8
VP38398
p56
sg10
I10
sg11
VBRCA1 gene
p57
sg13
I2
sasg17
(lp58
(dp59
g7
I147
sg30
VC0678222
p60
sg10
I13
sg11
Vbreast cancer
p61
sg13
I2
sa(dp62
g7
I147
sg30
VC0678222
p63
sg10
I13
sg11
Vbreast cancer
p64
sg13
I2
sasa(dp65
g2
S'The PTEN gene helps regulate cell growth.'
p66
sg4
(lp67
(dp68
g7
I4
sg8
VP60484
p69
sg10
I9
sg11
VPTEN gene
p70
sg13
I2
sasg17
(lp71
sa(dp72
g2
S'An abnormal PTEN gene causes Cowden syndrome, a rare disorder in which people have a higher risk of both benign (not cancer) and cancerous breast tumors, as well as growths in the digestive tract, thyroid, uterus, and ovaries.'
p73
sg4
(lp74
(dp75
g7
I12
sg8
VP60484
p76
sg10
I9
sg11
VPTEN gene
p77
sg13
I2
sasg17
(lp78
(dp79
g7
I48
sg30
VC0678236
p80
sg10
I13
sg11
Vrare disorder
p81
sg13
I2
sa(dp82
g7
I29
sg30
VC0018553
p83
sg10
I15
sg11
VCowden syndrome
p84
sg13
I2
sa(dp85
g7
I139
sg30
VC1458155
p86
sg10
I13
sg11
Vbreast tumors
p87
sg13
I2
sa(dp88
g7
I117
sg30
VC0006826
p89
sg10
I6
sg11
Vcancer
p90
sg13
I1
sasa(dp91
g2
S'The lifetime breast cancer risk for women with a PTEN mutation is up to 85%.'
p92
sg4
(lp93
(dp94
g7
I49
sg8
VP60484
p95
sg10
I4
sg11
VPTEN
p96
sg13
I1
sasg17
(lp97
(dp98
g7
I13
sg30
VC0678222
p99
sg10
I13
sg11
Vbreast cancer
p100
sg13
I2
sasa.