(lp0
(dp1
S'line'
p2
S'BRCA1 and BRCA2 genes'
p3
sS'genes'
p4
(lp5
(dp6
S'index'
p7
I10
sS'lengthInChars'
p8
I11
sS'name'
p9
VBRCA2 genes
p10
sS'lengthInWords'
p11
I2
sa(dp12
g7
I0
sg8
I5
sg9
VBRCA1
p13
sg11
I1
sasS'diseases'
p14
(lp15
sa(dp16
g2
S'Most inherited cases of breast cancer are associated with two abnormal genes: BRCA1 (BReast CAncer gene one) and BRCA2 (BReast CAncer gene two).'
p17
sg4
(lp18
(dp19
g7
I78
sg8
I5
sg9
VBRCA1
p20
sg11
I1
sa(dp21
g7
I113
sg8
I5
sg9
VBRCA2
p22
sg11
I1
sasg14
(lp23
(dp24
g7
I24
sS'cui'
p25
VC0678222
p26
sg8
I13
sg9
Vbreast cancer
p27
sg11
I2
sa(dp28
g7
I85
sg25
VC0678222
p29
sg8
I13
sg9
VBReast CAncer
p30
sg11
I2
sa(dp31
g7
I85
sg25
VC0678222
p32
sg8
I13
sg9
VBReast CAncer
p33
sg11
I2
sasa(dp34
g2
S'Everyone has BRCA1 and BRCA2 genes.'
p35
sg4
(lp36
(dp37
g7
I13
sg8
I5
sg9
VBRCA1
p38
sg11
I1
sa(dp39
g7
I23
sg8
I11
sg9
VBRCA2 genes
p40
sg11
I2
sasg14
(lp41
sa(dp42
g2
S'The function of the BRCA genes is to repair cell damage and keep breast, ovarian, and other cells growing normally.'
p43
sg4
(lp44
(dp45
g7
I20
sg8
I10
sg9
VBRCA genes
p46
sg11
I2
sasg14
(lp47
(dp48
g7
I44
sg25
VC0599732
p49
sg8
I11
sg9
Vcell damage
p50
sg11
I2
sasa(dp51
g2
S"But when these genes contain abnormalities or mutations that are passed from generation to generation, the genes don't function normally and breast, ovarian, and other cancer risk increases."
p52
sg4
(lp53
sg14
(lp54
(dp55
g7
I168
sg25
VC0006826
p56
sg8
I6
sg9
Vcancer
p57
sg11
I1
sasa(dp58
g2
S'Abnormal BRCA1 and BRCA2 genes may account for up to 10% of all breast cancers, or 1 out of every 10 cases.'
p59
sg4
(lp60
(dp61
g7
I19
sg8
I11
sg9
VBRCA2 genes
p62
sg11
I2
sa(dp63
g7
I9
sg8
I5
sg9
VBRCA1
p64
sg11
I1
sasg14
(lp65
(dp66
g7
I64
sg25
VC0006142
p67
sg8
I14
sg9
Vbreast cancers
p68
sg11
I2
sasa(dp69
g2
S"Having an abnormal BRCA1 or BRCA2 gene doesn't mean you will be diagnosed with breast cancer."
p70
sg4
(lp71
(dp72
g7
I28
sg8
I10
sg9
VBRCA2 gene
p73
sg11
I2
sa(dp74
g7
I19
sg8
I5
sg9
VBRCA1
p75
sg11
I1
sasg14
(lp76
(dp77
g7
I79
sg25
VC0678222
p78
sg8
I13
sg9
Vbreast cancer
p79
sg11
I2
sasa(dp80
g2
S"Researchers are learning that other mutations in pieces of chromosomes -- called SNPs (single nucleotide polymorphisms) -- may be linked to higher breast cancer risk in women with an abnormal BRCA1 gene as well as women who didn't inherit an abnormal breast cancer gene."
p81
sg4
(lp82
(dp83
g7
I192
sg8
I10
sg9
VBRCA1 gene
p84
sg11
I2
sasg14
(lp85
(dp86
g7
I147
sg25
VC0678222
p87
sg8
I13
sg9
Vbreast cancer
p88
sg11
I2
sa(dp89
g7
I147
sg25
VC0678222
p90
sg8
I13
sg9
Vbreast cancer
p91
sg11
I2
sasa.