(lp0
(dp1
S'line'
p2
S'About 5% to 10% of breast cancers are thought to be hereditary, caused by abnormal genes passed from parent to child.'
p3
sS'genes'
p4
(lp5
sS'diseases'
p6
(lp7
(dp8
S'index'
p9
I19
sS'lengthInChars'
p10
I14
sS'name'
p11
Vbreast cancers
p12
sS'lengthInWords'
p13
I2
sasa(dp14
g2
S'Genes are short segments of DNA (deoxyribonucleic acid) found in chromosomes.'
p15
sg4
(lp16
sg6
(lp17
sa(dp18
g2
S'DNA contains the instructions for building proteins.'
p19
sg4
(lp20
sg6
(lp21
sa(dp22
g2
S'And proteins control the structure and function of all the cells that make up your body.'
p23
sg4
(lp24
sg6
(lp25
sa(dp26
g2
S'Think of your genes as an instruction manual for cell growth and function.'
p27
sg4
(lp28
sg6
(lp29
sa(dp30
g2
S'Abnormalities in the DNA are like typographical errors.'
p31
sg4
(lp32
sg6
(lp33
sa(dp34
g2
S'They may provide the wrong set of instructions, leading to faulty cell growth or function.'
p35
sg4
(lp36
sg6
(lp37
sa(dp38
g2
S'In any one person, if there is an error in a gene, that same mistake will appear in all the cells that contain the same gene.'
p39
sg4
(lp40
sg6
(lp41
sa(dp42
g2
S'This is like having an instruction manual in which all the copies have the same typographical error.'
p43
sg4
(lp44
sg6
(lp45
sa(dp46
g2
S'BRCA1 and BRCA2 genes'
p47
sg4
(lp48
(dp49
g9
I10
sg10
I11
sg11
VBRCA2 genes
p50
sg13
I2
sa(dp51
g9
I0
sg10
I5
sg11
VBRCA1
p52
sg13
I1
sasg6
(lp53
sa(dp54
g2
S'Most inherited cases of breast cancer are associated with two abnormal genes: BRCA1 (BReast CAncer gene one) and BRCA2 (BReast CAncer gene two).'
p55
sg4
(lp56
(dp57
g9
I78
sg10
I5
sg11
VBRCA1
p58
sg13
I1
sa(dp59
g9
I113
sg10
I5
sg11
VBRCA2
p60
sg13
I1
sasg6
(lp61
(dp62
g9
I24
sg10
I13
sg11
Vbreast cancer
p63
sg13
I2
sa(dp64
g9
I85
sg10
I13
sg11
VBReast CAncer
p65
sg13
I2
sa(dp66
g9
I85
sg10
I13
sg11
VBReast CAncer
p67
sg13
I2
sasa(dp68
g2
S'Everyone has BRCA1 and BRCA2 genes.'
p69
sg4
(lp70
(dp71
g9
I13
sg10
I5
sg11
VBRCA1
p72
sg13
I1
sa(dp73
g9
I23
sg10
I11
sg11
VBRCA2 genes
p74
sg13
I2
sasg6
(lp75
sa(dp76
g2
S'The function of the BRCA genes is to repair cell damage and keep breast, ovarian, and other cells growing normally.'
p77
sg4
(lp78
(dp79
g9
I20
sg10
I10
sg11
VBRCA genes
p80
sg13
I2
sasg6
(lp81
(dp82
g9
I44
sg10
I11
sg11
Vcell damage
p83
sg13
I2
sasa(dp84
g2
S"But when these genes contain abnormalities or mutations that are passed from generation to generation, the genes don't function normally and breast, ovarian, and other cancer risk increases."
p85
sg4
(lp86
sg6
(lp87
(dp88
g9
I168
sg10
I6
sg11
Vcancer
p89
sg13
I1
sasa(dp90
g2
S'Abnormal BRCA1 and BRCA2 genes may account for up to 10% of all breast cancers, or 1 out of every 10 cases.'
p91
sg4
(lp92
(dp93
g9
I19
sg10
I11
sg11
VBRCA2 genes
p94
sg13
I2
sa(dp95
g9
I9
sg10
I5
sg11
VBRCA1
p96
sg13
I1
sasg6
(lp97
(dp98
g9
I64
sg10
I14
sg11
Vbreast cancers
p99
sg13
I2
sasa(dp100
g2
S"Having an abnormal BRCA1 or BRCA2 gene doesn't mean you will be diagnosed with breast cancer."
p101
sg4
(lp102
(dp103
g9
I28
sg10
I10
sg11
VBRCA2 gene
p104
sg13
I2
sa(dp105
g9
I19
sg10
I5
sg11
VBRCA1
p106
sg13
I1
sasg6
(lp107
(dp108
g9
I79
sg10
I13
sg11
Vbreast cancer
p109
sg13
I2
sasa(dp110
g2
S"Researchers are learning that other mutations in pieces of chromosomes -- called SNPs (single nucleotide polymorphisms) -- may be linked to higher breast cancer risk in women with an abnormal BRCA1 gene as well as women who didn't inherit an abnormal breast cancer gene."
p111
sg4
(lp112
(dp113
g9
I192
sg10
I10
sg11
VBRCA1 gene
p114
sg13
I2
sasg6
(lp115
(dp116
g9
I147
sg10
I13
sg11
Vbreast cancer
p117
sg13
I2
sa(dp118
g9
I147
sg10
I13
sg11
Vbreast cancer
p119
sg13
I2
sasa(dp120
g2
S'Women who are diagnosed with breast cancer and have an abnormal BRCA1 or BRCA2 gene often have a family history of breast cancer, ovarian cancer, and other cancers.'
p121
sg4
(lp122
(dp123
g9
I73
sg10
I10
sg11
VBRCA2 gene
p124
sg13
I2
sa(dp125
g9
I64
sg10
I5
sg11
VBRCA1
p126
sg13
I1
sasg6
(lp127
(dp128
g9
I122
sg10
I15
sg11
Vcancer, ovarian
p129
sg13
I2
sa(dp130
g9
I156
sg10
I7
sg11
Vcancers
p131
sg13
I1
sa(dp132
g9
I29
sg10
I13
sg11
Vbreast cancer
p133
sg13
I2
sa(dp134
g9
I36
sg10
I6
sg11
Vcancer
p135
sg13
I1
sasa(dp136
g2
S'Still, most people who develop breast cancer did not inherit an abnormal breast cancer gene and have no family history of the disease.'
p137
sg4
(lp138
sg6
(lp139
(dp140
g9
I31
sg10
I13
sg11
Vbreast cancer
p141
sg13
I2
sa(dp142
g9
I31
sg10
I13
sg11
Vbreast cancer
p143
sg13
I2
sasa(dp144
g2
S'You are substantially more likely to have an abnormal breast cancer gene if:'
p145
sg4
(lp146
sg6
(lp147
(dp148
g9
I54
sg10
I13
sg11
Vbreast cancer
p149
sg13
I2
sasa(dp150
g2
S"You have blood relatives (grandmothers, mother, sisters, aunts) on either your mother's or father's side of the family who had breast cancer diagnosed before age 50."
p151
sg4
(lp152
sg6
(lp153
(dp154
g9
I127
sg10
I13
sg11
Vbreast cancer
p155
sg13
I2
sasa(dp156
g2
S'There is both breast and ovarian cancer on the same side of the family or in a single individual.'
p157
sg4
(lp158
sg6
(lp159
(dp160
g9
I25
sg10
I14
sg11
Vovarian cancer
p161
sg13
I2
sasa(dp162
g2
S'You have a relative(s) with triple-negative breast cancer.'
p163
sg4
(lp164
sg6
(lp165
(dp166
g9
I44
sg10
I13
sg11
Vbreast cancer
p167
sg13
I2
sasa(dp168
g2
S'There are other cancers in your family in addition to breast, such as prostate, melanoma, pancreatic, stomach, uterine, thyroid, colon, and/or sarcoma.'
p169
sg4
(lp170
sg6
(lp171
(dp172
g9
I80
sg10
I8
sg11
Vmelanoma
p173
sg13
I1
sa(dp174
g9
I16
sg10
I7
sg11
Vcancers
p175
sg13
I1
sa(dp176
g9
I143
sg10
I7
sg11
Vsarcoma
p177
sg13
I1
sasa(dp178
g2
S'Women in your family have had cancer in both breasts.'
p179
sg4
(lp180
sg6
(lp181
(dp182
g9
I30
sg10
I22
sg11
Vcancer in both breasts
p183
sg13
I4
sasa(dp184
g2
S'You are of Ashkenazi Jewish (Eastern European) heritage.'
p185
sg4
(lp186
sg6
(lp187
sa(dp188
g2
S'You are African American and have been diagnosed with breast cancer at age 35 or younger.'
p189
sg4
(lp190
sg6
(lp191
(dp192
g9
I54
sg10
I13
sg11
Vbreast cancer
p193
sg13
I2
sasa(dp194
g2
S'A man in your family has had breast cancer.'
p195
sg4
(lp196
sg6
(lp197
(dp198
g9
I29
sg10
I13
sg11
Vbreast cancer
p199
sg13
I2
sasa(dp200
g2
S'There is a known abnormal breast cancer gene in your family.'
p201
sg4
(lp202
sg6
(lp203
(dp204
g9
I26
sg10
I13
sg11
Vbreast cancer
p205
sg13
I2
sasa(dp206
g2
S'If one family member has an abnormal breast cancer gene, it does not mean that all family members will have it.'
p207
sg4
(lp208
sg6
(lp209
(dp210
g9
I37
sg10
I13
sg11
Vbreast cancer
p211
sg13
I2
sasa(dp212
g2
S'The average woman in the United States has about a 1 in 8, or about 12%, risk of developing breast cancer in her lifetime.'
p213
sg4
(lp214
sg6
(lp215
(dp216
g9
I92
sg10
I13
sg11
Vbreast cancer
p217
sg13
I2
sasa(dp218
g2
S'Women who have an abnormal BRCA1 or BRCA2 gene (or both) can have up to an 80% risk of being diagnosed with breast cancer during their lifetimes.'
p219
sg4
(lp220
(dp221
g9
I36
sg10
I10
sg11
VBRCA2 gene
p222
sg13
I2
sa(dp223
g9
I27
sg10
I5
sg11
VBRCA1
p224
sg13
I1
sasg6
(lp225
(dp226
g9
I108
sg10
I13
sg11
Vbreast cancer
p227
sg13
I2
sasa(dp228
g2
S'Breast cancers associated with an abnormal BRCA1 or BRCA2 gene tend to develop in younger women and occur more often in both breasts than cancers in women without these abnormal genes.'
p229
sg4
(lp230
(dp231
g9
I43
sg10
I5
sg11
VBRCA1
p232
sg13
I1
sa(dp233
g9
I52
sg10
I10
sg11
VBRCA2 gene
p234
sg13
I2
sasg6
(lp235
(dp236
g9
I7
sg10
I7
sg11
Vcancers
p237
sg13
I1
sa(dp238
g9
I0
sg10
I14
sg11
VBreast cancers
p239
sg13
I2
sasa(dp240
g2
S'Women with an abnormal BRCA1 or BRCA2 gene also have an increased risk of developing ovarian, colon, and pancreatic cancers, as well as melanoma.'
p241
sg4
(lp242
(dp243
g9
I23
sg10
I5
sg11
VBRCA1
p244
sg13
I1
sa(dp245
g9
I32
sg10
I10
sg11
VBRCA2 gene
p246
sg13
I2
sasg6
(lp247
(dp248
g9
I136
sg10
I8
sg11
Vmelanoma
p249
sg13
I1
sa(dp250
g9
I105
sg10
I18
sg11
Vpancreatic cancers
p251
sg13
I2
sasa(dp252
g2
S"Men who have an abnormal BRCA2 gene have a higher risk of breast cancer than men who don't -- about 8% by the time they're 80 years old."
p253
sg4
(lp254
(dp255
g9
I25
sg10
I10
sg11
VBRCA2 gene
p256
sg13
I2
sasg6
(lp257
(dp258
g9
I58
sg10
I13
sg11
Vbreast cancer
p259
sg13
I2
sasa(dp260
g2
S'This is about 80 times greater than average.'
p261
sg4
(lp262
sg6
(lp263
sa(dp264
g2
S'Men with an abnormal BRCA1 gene have a slightly higher risk of prostate cancer.'
p265
sg4
(lp266
(dp267
g9
I21
sg10
I10
sg11
VBRCA1 gene
p268
sg13
I2
sasg6
(lp269
(dp270
g9
I63
sg10
I15
sg11
Vprostate cancer
p271
sg13
I2
sasa(dp272
g2
S'Men with an abnormal BRCA2 gene are 7 times more likely than men without the abnormal gene to develop prostate cancer.'
p273
sg4
(lp274
(dp275
g9
I21
sg10
I10
sg11
VBRCA2 gene
p276
sg13
I2
sasg6
(lp277
(dp278
g9
I102
sg10
I15
sg11
Vprostate cancer
p279
sg13
I2
sasa(dp280
g2
S'Other cancer risks, such as cancer of the skin or digestive tract, also may be slightly higher in men with abnormal BRCA1 or BRCA2 genes.'
p281
sg4
(lp282
(dp283
g9
I116
sg10
I5
sg11
VBRCA1
p284
sg13
I1
sa(dp285
g9
I125
sg10
I11
sg11
VBRCA2 genes
p286
sg13
I2
sasg6
(lp287
(dp288
g9
I6
sg10
I6
sg11
Vcancer
p289
sg13
I1
sa(dp290
g9
I28
sg10
I18
sg11
Vcancer of the skin
p291
sg13
I4
sasa(dp292
g2
S'Other genes'
p293
sg4
(lp294
sg6
(lp295
sa(dp296
g2
S'Changes in other genes are also associated with breast cancer.'
p297
sg4
(lp298
sg6
(lp299
(dp300
g9
I48
sg10
I13
sg11
Vbreast cancer
p301
sg13
I2
sasa(dp302
g2
S"These abnormal genes are much less common and don't seem to increase risk as much as abnormal BRCA1 and BRCA2 genes, which are considered rare."
p303
sg4
(lp304
(dp305
g9
I94
sg10
I5
sg11
VBRCA1
p306
sg13
I1
sa(dp307
g9
I104
sg10
I11
sg11
VBRCA2 genes
p308
sg13
I2
sasg6
(lp309
sa(dp310
g2
S"Still, because these genetic mutations are rarer, they haven't been studied as much as the BRCA genes."
p311
sg4
(lp312
(dp313
g9
I91
sg10
I10
sg11
VBRCA genes
p314
sg13
I2
sasg6
(lp315
sa(dp316
g2
S'ATM: The ATM gene helps repair damaged DNA.'
p317
sg4
(lp318
(dp319
g9
I9
sg10
I8
sg11
VATM gene
p320
sg13
I2
sa(dp321
g9
I0
sg10
I3
sg11
VATM
p322
sg13
I1
sasg6
(lp323
sa(dp324
g2
S'DNA carries genetic information in cells.'
p325
sg4
(lp326
sg6
(lp327
sa(dp328
g2
S'Inheriting two abnormal copies of this gene causes the disease ataxia-telangiectasia, a rare disease that affects brain development.'
p329
sg4
(lp330
sg6
(lp331
(dp332
g9
I63
sg10
I21
sg11
Vataxia-telangiectasia
p333
sg13
I1
sa(dp334
g9
I88
sg10
I12
sg11
Vrare disease
p335
sg13
I2
sasa(dp336
g2
S'Inheriting one abnormal ATM gene has been linked to an increased rate of breast cancer and pancreatic cancer in some families because the abnormal gene stops the cells from repairing damaged DNA.'
p337
sg4
(lp338
(dp339
g9
I24
sg10
I8
sg11
VATM gene
p340
sg13
I2
sasg6
(lp341
(dp342
g9
I91
sg10
I17
sg11
Vpancreatic cancer
p343
sg13
I2
sa(dp344
g9
I73
sg10
I13
sg11
Vbreast cancer
p345
sg13
I2
sasa(dp346
g2
S'BRIP1: The BRIP1 gene also works to repair DNA.'
p347
sg4
(lp348
(dp349
g9
I11
sg10
I10
sg11
VBRIP1 gene
p350
sg13
I2
sa(dp351
g9
I0
sg10
I5
sg11
VBRIP1
p352
sg13
I1
sasg6
(lp353
sa(dp354
g2
S'Inheriting one abnormal BRIP1 gene is associated with higher risk of both breast and ovarian cancer.'
p355
sg4
(lp356
(dp357
g9
I24
sg10
I10
sg11
VBRIP1 gene
p358
sg13
I2
sasg6
(lp359
(dp360
g9
I85
sg10
I14
sg11
Vovarian cancer
p361
sg13
I2
sasa(dp362
g2
S'CDH1: The CDH1 gene makes a protein that helps cells bind together to form tissue.'
p363
sg4
(lp364
(dp365
g9
I10
sg10
I9
sg11
VCDH1 gene
p366
sg13
I2
sa(dp367
g9
I0
sg10
I4
sg11
VCDH1
p368
sg13
I1
sasg6
(lp369
sa(dp370
g2
S'An abnormal CDH1 gene increases the risk of a rare type of stomach cancer at an early age.'
p371
sg4
(lp372
(dp373
g9
I12
sg10
I9
sg11
VCDH1 gene
p374
sg13
I2
sasg6
(lp375
(dp376
g9
I59
sg10
I14
sg11
Vstomach cancer
p377
sg13
I2
sasa(dp378
g2
S'The lifetime risk is up to 83%.'
p379
sg4
(lp380
sg6
(lp381
sa(dp382
g2
S'Women with an abnormal CDH1 gene also have a 39% to 52% lifetime risk of invasive lobular breast cancer.'
p383
sg4
(lp384
(dp385
g9
I23
sg10
I9
sg11
VCDH1 gene
p386
sg13
I2
sasg6
(lp387
(dp388
g9
I90
sg10
I13
sg11
Vbreast cancer
p389
sg13
I2
sasa(dp390
g2
S'CHEK2: The CHEK2 gene provides instructions for making a protein that stops tumor growth.'
p391
sg4
(lp392
sg6
(lp393
(dp394
g9
I76
sg10
I12
sg11
Vtumor growth
p395
sg13
I2
sasa(dp396
g2
S'An abnormal CHEK2 gene can at least double breast cancer risk, double colon cancer risk, and increase prostate cancer risk.'
p397
sg4
(lp398
sg6
(lp399
(dp400
g9
I43
sg10
I13
sg11
Vbreast cancer
p401
sg13
I2
sa(dp402
g9
I102
sg10
I15
sg11
Vprostate cancer
p403
sg13
I2
sa(dp404
g9
I70
sg10
I12
sg11
Vcolon cancer
p405
sg13
I2
sasa(dp406
g2
S'MRE11A: Along with the RAD50 and NBN genes, the MRE11A gene forms the MRN complex, which helps repair DNA damage in cells.'
p407
sg4
(lp408
(dp409
g9
I0
sg10
I6
sg11
VMRE11A
p410
sg13
I1
sa(dp411
g9
I33
sg10
I9
sg11
VNBN genes
p412
sg13
I2
sa(dp413
g9
I48
sg10
I11
sg11
VMRE11A gene
p414
sg13
I2
sa(dp415
g9
I23
sg10
I5
sg11
VRAD50
p416
sg13
I1
sasg6
(lp417
(dp418
g9
I102
sg10
I10
sg11
VDNA damage
p419
sg13
I2
sasa(dp420
g2
S'An abnormal MRE11A gene is linked to ataxia-telangiectasia-like disorder, a rare disease that affects brain development.'
p421
sg4
(lp422
(dp423
g9
I12
sg10
I11
sg11
VMRE11A gene
p424
sg13
I2
sasg6
(lp425
(dp426
g9
I37
sg10
I35
sg11
Vataxia-telangiectasia-like disorder
p427
sg13
I2
sa(dp428
g9
I76
sg10
I12
sg11
Vrare disease
p429
sg13
I2
sasa(dp430
g2
S'The disease also weakens the immune system and increases cancer risk.'
p431
sg4
(lp432
sg6
(lp433
(dp434
g9
I57
sg10
I6
sg11
Vcancer
p435
sg13
I1
sasa(dp436
g2
S'NBN: Along with the MRE11A and RAD50 genes, the NBN gene forms the MRN complex, which helps repair DNA damage in cells.'
p437
sg4
(lp438
(dp439
g9
I20
sg10
I6
sg11
VMRE11A
p440
sg13
I1
sa(dp441
g9
I48
sg10
I8
sg11
VNBN gene
p442
sg13
I2
sa(dp443
g9
I31
sg10
I11
sg11
VRAD50 genes
p444
sg13
I2
sasg6
(lp445
(dp446
g9
I99
sg10
I10
sg11
VDNA damage
p447
sg13
I2
sasa(dp448
g2
S'An abnormal NBN gene causes Nijmegen breakage syndrome, a condition that causes slow growth in infancy and early childhood.'
p449
sg4
(lp450
(dp451
g9
I12
sg10
I8
sg11
VNBN gene
p452
sg13
I2
sasg6
(lp453
(dp454
g9
I28
sg10
I26
sg11
VNijmegen breakage syndrome
p455
sg13
I3
sa(dp456
g9
I58
sg10
I9
sg11
Vcondition
p457
sg13
I1
sasa(dp458
g2
S'People with Nijmegen breakage syndrome are shorter than average; have a higher risk of several types of cancer, including breast cancer; and many other health problems.'
p459
sg4
(lp460
sg6
(lp461
(dp462
g9
I122
sg10
I13
sg11
Vbreast cancer
p463
sg13
I2
sa(dp464
g9
I12
sg10
I26
sg11
VNijmegen breakage syndrome
p465
sg13
I3
sa(dp466
g9
I104
sg10
I6
sg11
Vcancer
p467
sg13
I1
sasa(dp468
g2
S'Of the three genes in the MRN complex, researchers think that an abnormal NBN gene has the strongest link to breast cancer.'
p469
sg4
(lp470
(dp471
g9
I74
sg10
I8
sg11
VNBN gene
p472
sg13
I2
sasg6
(lp473
(dp474
g9
I109
sg10
I13
sg11
Vbreast cancer
p475
sg13
I2
sasa(dp476
g2
S'PALB2: The PALB2 gene is called the partner and localizer of BRCA2.'
p477
sg4
(lp478
(dp479
g9
I0
sg10
I5
sg11
VPALB2
p480
sg13
I1
sa(dp481
g9
I11
sg10
I10
sg11
VPALB2 gene
p482
sg13
I2
sa(dp483
g9
I61
sg10
I5
sg11
VBRCA2
p484
sg13
I1
sasg6
(lp485
sa(dp486
g2
S'It provides instructions to make a protein that works with the BRCA2 protein to repair damaged DNA and stop tumor growth.'
p487
sg4
(lp488
(dp489
g9
I63
sg10
I13
sg11
VBRCA2 protein
p490
sg13
I2
sasg6
(lp491
(dp492
g9
I108
sg10
I12
sg11
Vtumor growth
p493
sg13
I2
sasa(dp494
g2
S'Research published in 2014 found that an abnormal PALB2 gene increases breast cancer risk 5 to 9 times higher than average, almost as high as an abnormal BRCA1 or BRCA2 gene.'
p495
sg4
(lp496
(dp497
g9
I50
sg10
I10
sg11
VPALB2 gene
p498
sg13
I2
sa(dp499
g9
I154
sg10
I5
sg11
VBRCA1
p500
sg13
I1
sa(dp501
g9
I163
sg10
I10
sg11
VBRCA2 gene
p502
sg13
I2
sasg6
(lp503
(dp504
g9
I71
sg10
I13
sg11
Vbreast cancer
p505
sg13
I2
sasa(dp506
g2
S'Women with an abnormal PALB2 gene have a 33% to 58% lifetime risk of developing breast cancer.'
p507
sg4
(lp508
(dp509
g9
I23
sg10
I10
sg11
VPALB2 gene
p510
sg13
I2
sasg6
(lp511
(dp512
g9
I80
sg10
I13
sg11
Vbreast cancer
p513
sg13
I2
sasa(dp514
g2
S'In comparison, women with an abnormal BRCA1 gene have a 50% to 70% risk of developing breast cancer by age 70.'
p515
sg4
(lp516
(dp517
g9
I38
sg10
I10
sg11
VBRCA1 gene
p518
sg13
I2
sasg6
(lp519
(dp520
g9
I86
sg10
I13
sg11
Vbreast cancer
p521
sg13
I2
sasa(dp522
g2
S'Women with an abnormal BRCA2 gene have a 40% to 60% risk of developing breast cancer by age 70.'
p523
sg4
(lp524
(dp525
g9
I23
sg10
I10
sg11
VBRCA2 gene
p526
sg13
I2
sasg6
(lp527
(dp528
g9
I71
sg10
I13
sg11
Vbreast cancer
p529
sg13
I2
sasa(dp530
g2
S'PTEN: The PTEN gene helps regulate cell growth.'
p531
sg4
(lp532
(dp533
g9
I10
sg10
I9
sg11
VPTEN gene
p534
sg13
I2
sa(dp535
g9
I0
sg10
I4
sg11
VPTEN
p536
sg13
I1
sasg6
(lp537
sa(dp538
g2
S'An abnormal PTEN gene causes Cowden syndrome, a rare disorder in which people have a higher risk of both benign (not cancer) and cancerous breast tumors, as well as growths in the digestive tract, thyroid, uterus, and ovaries.'
p539
sg4
(lp540
(dp541
g9
I12
sg10
I9
sg11
VPTEN gene
p542
sg13
I2
sasg6
(lp543
(dp544
g9
I48
sg10
I13
sg11
Vrare disorder
p545
sg13
I2
sa(dp546
g9
I29
sg10
I15
sg11
VCowden syndrome
p547
sg13
I2
sa(dp548
g9
I139
sg10
I13
sg11
Vbreast tumors
p549
sg13
I2
sa(dp550
g9
I117
sg10
I6
sg11
Vcancer
p551
sg13
I1
sasa(dp552
g2
S'The lifetime breast cancer risk for women with a PTEN mutation is up to 85%.'
p553
sg4
(lp554
(dp555
g9
I49
sg10
I4
sg11
VPTEN
p556
sg13
I1
sasg6
(lp557
(dp558
g9
I13
sg10
I13
sg11
Vbreast cancer
p559
sg13
I2
sasa(dp560
g2
S'In 2015, an abnormal version of the SEC23B gene also was linked to Cowden syndrome.'
p561
sg4
(lp562
(dp563
g9
I36
sg10
I11
sg11
VSEC23B gene
p564
sg13
I2
sasg6
(lp565
(dp566
g9
I67
sg10
I15
sg11
VCowden syndrome
p567
sg13
I2
sasa(dp568
g2
S'The SEC23B gene also helps regulate cell growth.'
p569
sg4
(lp570
(dp571
g9
I4
sg10
I11
sg11
VSEC23B gene
p572
sg13
I2
sasg6
(lp573
sa(dp574
g2
S'Because this discovery is so new, there is not a clinical test available for an abnormal SEC23B gene.'
p575
sg4
(lp576
(dp577
g9
I89
sg10
I11
sg11
VSEC23B gene
p578
sg13
I2
sasg6
(lp579
sa(dp580
g2
S'RAD50: Along with the MRE11A and NBN genes, the RAD50 gene forms the MRN complex, which helps repair DNA damage in cells.'
p581
sg4
(lp582
(dp583
g9
I48
sg10
I10
sg11
VRAD50 gene
p584
sg13
I2
sa(dp585
g9
I0
sg10
I5
sg11
VRAD50
p586
sg13
I1
sa(dp587
g9
I22
sg10
I6
sg11
VMRE11A
p588
sg13
I1
sa(dp589
g9
I33
sg10
I9
sg11
VNBN genes
p590
sg13
I2
sasg6
(lp591
(dp592
g9
I101
sg10
I10
sg11
VDNA damage
p593
sg13
I2
sasa(dp594
g2
S'An abnormal RAD50 gene has been linked to a higher risk of breast cancer in some families because the abnormal gene stops the cells from repairing damaged DNA.'
p595
sg4
(lp596
(dp597
g9
I12
sg10
I10
sg11
VRAD50 gene
p598
sg13
I2
sasg6
(lp599
(dp600
g9
I59
sg10
I13
sg11
Vbreast cancer
p601
sg13
I2
sasa(dp602
g2
S'RAD51C: The RAD51C gene repairs DNA damage.'
p603
sg4
(lp604
(dp605
g9
I12
sg10
I11
sg11
VRAD51C gene
p606
sg13
I2
sa(dp607
g9
I0
sg10
I6
sg11
VRAD51C
p608
sg13
I1
sasg6
(lp609
(dp610
g9
I32
sg10
I10
sg11
VDNA damage
p611
sg13
I2
sasa(dp612
g2
S'People who have inherited one abnormal copy have higher risk of breast and ovarian cancer.'
p613
sg4
(lp614
sg6
(lp615
(dp616
g9
I75
sg10
I14
sg11
Vovarian cancer
p617
sg13
I2
sasa(dp618
g2
S'STK11: The STK11 gene helps regulate cell growth.'
p619
sg4
(lp620
(dp621
g9
I11
sg10
I10
sg11
VSTK11 gene
p622
sg13
I2
sa(dp623
g9
I0
sg10
I5
sg11
VSTK11
p624
sg13
I1
sasg6
(lp625
sa(dp626
g2
S'An abnormal STK11 gene causes Peutz Jegher syndrome, a rare disorder in which people tend to develop a type of polyp, called a hamartomatous polyp, mostly in the small intestine but also in the stomach and colon.'
p627
sg4
(lp628
(dp629
g9
I12
sg10
I10
sg11
VSTK11 gene
p630
sg13
I2
sasg6
(lp631
(dp632
g9
I111
sg10
I5
sg11
Vpolyp
p633
sg13
I1
sa(dp634
g9
I30
sg10
I21
sg11
VPeutz Jegher syndrome
p635
sg13
I3
sa(dp636
g9
I55
sg10
I13
sg11
Vrare disorder
p637
sg13
I2
sa(dp638
g9
I127
sg10
I19
sg11
Vhamartomatous polyp
p639
sg13
I2
sasa(dp640
g2
S'People with Peutz Jegher syndrome are at higher risk not only of gastrointestinal cancers, but also breast and lung cancer and ovarian tumors.'
p641
sg4
(lp642
sg6
(lp643
(dp644
g9
I65
sg10
I24
sg11
Vgastrointestinal cancers
p645
sg13
I2
sa(dp646
g9
I12
sg10
I21
sg11
VPeutz Jegher syndrome
p647
sg13
I3
sa(dp648
g9
I111
sg10
I11
sg11
Vlung cancer
p649
sg13
I2
sa(dp650
g9
I127
sg10
I14
sg11
Vovarian tumors
p651
sg13
I2
sasa(dp652
g2
S'People may also develop freckling around the eyes, nose, and mouth, as well as inside the mouth.'
p653
sg4
(lp654
sg6
(lp655
sa(dp656
g2
S'TP53: The TP53 gene provides instructions to the body for making a protein that stops tumor growth.'
p657
sg4
(lp658
sg6
(lp659
(dp660
g9
I86
sg10
I12
sg11
Vtumor growth
p661
sg13
I2
sasa(dp662
g2
S'Inheriting an abnormal TP53 gene causes Li-Fraumeni syndrome, a disorder that causes people to develop soft tissue cancers at a young age.'
p663
sg4
(lp664
sg6
(lp665
(dp666
g9
I40
sg10
I20
sg11
VLi-Fraumeni syndrome
p667
sg13
I2
sa(dp668
g9
I115
sg10
I7
sg11
Vcancers
p669
sg13
I1
sasa(dp670
g2
S'People with this rare syndrome have a higher-than-average-risk of breast cancer and several other cancers, including leukemia, brain tumors, and sarcomas (cancer of the bones or connective tissue).'
p671
sg4
(lp672
sg6
(lp673
(dp674
g9
I117
sg10
I8
sg11
Vleukemia
p675
sg13
I1
sa(dp676
g9
I98
sg10
I7
sg11
Vcancers
p677
sg13
I1
sa(dp678
g9
I73
sg10
I6
sg11
Vcancer
p679
sg13
I1
sa(dp680
g9
I22
sg10
I8
sg11
Vsyndrome
p681
sg13
I1
sa(dp682
g9
I145
sg10
I8
sg11
Vsarcomas
p683
sg13
I1
sa(dp684
g9
I66
sg10
I13
sg11
Vbreast cancer
p685
sg13
I2
sa(dp686
g9
I127
sg10
I12
sg11
Vbrain tumors
p687
sg13
I2
sasa(dp688
g2
S'The cancer risk in women with a TP53 mutation is up to nearly 100%.'
p689
sg4
(lp690
sg6
(lp691
(dp692
g9
I4
sg10
I6
sg11
Vcancer
p693
sg13
I1
sasa(dp694
g2
S'In men, it is up to 73%.'
p695
sg4
(lp696
sg6
(lp697
sa(dp698
g2
S'This gender difference is mostly due to the high breast cancer risk in women.'
p699
sg4
(lp700
sg6
(lp701
(dp702
g9
I49
sg10
I13
sg11
Vbreast cancer
p703
sg13
I2
sasa(dp704
g2
S'Inheriting two abnormal copies of the BRCA2, BRIP1, MRE11A, NBN, PALB2, RAD50, or RAD51C genes causes the disease Fanconi anema, which suppresses bone marrow function and leads to extremely low levels of red blood cells, white blood cells, and platelets.'
p705
sg4
(lp706
(dp707
g9
I72
sg10
I5
sg11
VRAD50
p708
sg13
I1
sa(dp709
g9
I82
sg10
I12
sg11
VRAD51C genes
p710
sg13
I2
sa(dp711
g9
I65
sg10
I5
sg11
VPALB2
p712
sg13
I1
sa(dp713
g9
I60
sg10
I3
sg11
VNBN
p714
sg13
I1
sa(dp715
g9
I45
sg10
I5
sg11
VBRIP1
p716
sg13
I1
sa(dp717
g9
I38
sg10
I5
sg11
VBRCA2
p718
sg13
I1
sa(dp719
g9
I52
sg10
I6
sg11
VMRE11A
p720
sg13
I1
sasg6
(lp721
sa(dp722
g2
S'People with Fanconi anemia also have a higher risk of several other types of cancer, including kidney cancer and brain cancer.'
p723
sg4
(lp724
sg6
(lp725
(dp726
g9
I12
sg10
I14
sg11
VFanconi anemia
p727
sg13
I2
sa(dp728
g9
I95
sg10
I13
sg11
Vkidney cancer
p729
sg13
I2
sa(dp730
g9
I113
sg10
I12
sg11
Vbrain cancer
p731
sg13
I2
sa(dp732
g9
I77
sg10
I6
sg11
Vcancer
p733
sg13
I1
sasa.